

Microchip MPLAB XC8 Assembler V2.50 build 20240725155939 
                                                                                               Sun Sep 22 14:50:08 2024

Microchip MPLAB XC8 C Compiler v2.50 (Free license) build 20240725155939 Og1 
     1                           	processor	18F46K20
     2                           	fnconf	rparam,??,?,0
     3                           	pagewidth 120
     4                           	opt	flic
     5                           	psect	smallconst,global,reloc=2,class=SMALLCONST,space=0,delta=1,noexec
     6                           	psect	cinit,global,reloc=2,class=CODE,space=0,delta=1
     7                           	psect	bssCOMRAM,global,class=COMRAM,space=1,delta=1,lowdata,noexec
     8                           	psect	cstackCOMRAM,global,class=COMRAM,space=1,delta=1,lowdata,noexec
     9                           	psect	text0,global,reloc=2,class=CODE,space=0,delta=1
    10                           	psect	text1,global,reloc=2,class=CODE,space=0,delta=1
    11                           	psect	text2,global,reloc=2,class=CODE,space=0,delta=1
    12                           	psect	text3,global,reloc=2,class=CODE,space=0,delta=1
    13                           	psect	text4,global,reloc=2,class=CODE,space=0,delta=1
    14                           	psect	text5,global,reloc=2,class=CODE,space=0,delta=1
    15                           	psect	text6,global,reloc=2,class=CODE,space=0,delta=1
    16                           	psect	text7,global,reloc=2,class=CODE,space=0,delta=1
    17                           	psect	text8,global,reloc=2,class=CODE,space=0,delta=1
    18                           	psect	text9,global,reloc=2,class=CODE,space=0,delta=1
    19                           	psect	intcode,global,reloc=2,class=CODE,space=0,delta=1
    20                           	psect	text11,global,reloc=2,class=CODE,space=0,delta=1
    21                           	psect	text12,global,reloc=2,class=CODE,space=0,delta=1
    22                           	psect	text13,global,reloc=2,class=CODE,space=0,delta=1
    23                           	psect	text14,global,reloc=2,class=CODE,space=0,delta=1
    24                           	psect	text15,global,reloc=2,class=CODE,space=0,delta=1
    25                           	psect	text16,global,reloc=2,class=CODE,space=0,delta=1
    26                           	psect	text17,global,reloc=2,class=CODE,space=0,delta=1
    27                           	psect	intsave_regs,global,class=BIGRAM,space=1,delta=1,noexec
    28                           	psect	rparam,global,class=COMRAM,space=1,delta=1,noexec
    29                           	psect	temp,global,ovrld,common,class=COMRAM,space=1,delta=1,lowdata
    30                           	psect	config,global,abs,ovrld,class=CONFIG,space=4,delta=1,noexec
    31   000000                     
    32                           ; Generated 12/10/2023 GMT
    33                           ; 
    34                           ; Copyright © 2023, Microchip Technology Inc. and its subsidiaries ("Microchip")
    35                           ; All rights reserved.
    36                           ; 
    37                           ; This software is developed by Microchip Technology Inc. and its subsidiaries ("Microch
      +                          ip").
    38                           ; 
    39                           ; Redistribution and use in source and binary forms, with or without modification, are
    40                           ; permitted provided that the following conditions are met:
    41                           ; 
    42                           ;     1. Redistributions of source code must retain the above copyright notice, this lis
      +                          t of
    43                           ;        conditions and the following disclaimer.
    44                           ; 
    45                           ;     2. Redistributions in binary form must reproduce the above copyright notice, this 
      +                          list
    46                           ;        of conditions and the following disclaimer in the documentation and/or other
    47                           ;        materials provided with the distribution. Publication is not required when
    48                           ;        this file is used in an embedded application.
    49                           ; 
    50                           ;     3. Microchip's name may not be used to endorse or promote products derived from th
      +                          is
    51                           ;        software without specific prior written permission.
    52                           ; 
    53                           ; THIS SOFTWARE IS PROVIDED BY MICROCHIP "AS IS" AND ANY EXPRESS OR IMPLIED WARRANTIES,
    54                           ; INCLUDING, BUT NOT LIMITED TO, THE IMPLIED WARRANTIES OF MERCHANTABILITY AND FITNESS F
      +                          OR
    55                           ; PURPOSE ARE DISCLAIMED.  IN NO EVENT SHALL MICROCHIP BE LIABLE FOR ANY DIRECT, INDIREC
      +                          T,
    56                           ; INCIDENTAL, SPECIAL, EXEMPLARY, OR CONSEQUENTIAL DAMAGES (INCLUDING BUT NOT LIMITED TO
    57                           ; PROCUREMENT OF SUBSTITUTE GOODS OR SERVICES; LOSS OF USE, DATA OR PROFITS; OR BUSINESS
    58                           ; INTERRUPTION) HOWSOEVER CAUSED AND ON ANY THEORY OF LIABILITY, WHETHER IN CONTRACT, ST
      +                          RICT
    59                           ; LIABILITY, OR TORT (INCLUDING NEGLIGENCE OR OTHERWISE) ARISING IN ANY WAY OUT OF THE U
      +                          SE OF
    60                           ; THIS SOFTWARE, EVEN IF ADVISED OF THE POSSIBILITY OF SUCH DAMAGE.
    61                           ; 
    62                           ; 
    63                           ; Code-generator required, PIC18F46K20 Definitions
    64                           ; 
    65                           ; SFR Addresses
    66   000FE0                     bsr             equ	4064
    67   000FE9                     fsr0            equ	4073
    68   000FEA                     fsr0h           equ	4074
    69   000FE9                     fsr0l           equ	4073
    70   000FE1                     fsr1            equ	4065
    71   000FE2                     fsr1h           equ	4066
    72   000FE1                     fsr1l           equ	4065
    73   000FD9                     fsr2            equ	4057
    74   000FDA                     fsr2h           equ	4058
    75   000FD9                     fsr2l           equ	4057
    76   000FEF                     indf0           equ	4079
    77   000FE7                     indf1           equ	4071
    78   000FDF                     indf2           equ	4063
    79   000FF2                     intcon          equ	4082
    80   000000                     nvmcon          equ	0
    81   000FF9                     pcl             equ	4089
    82   000FFA                     pclath          equ	4090
    83   000FFB                     pclatu          equ	4091
    84   000FEB                     plusw0          equ	4075
    85   000FE3                     plusw1          equ	4067
    86   000FDB                     plusw2          equ	4059
    87   000FED                     postdec0        equ	4077
    88   000FE5                     postdec1        equ	4069
    89   000FDD                     postdec2        equ	4061
    90   000FEE                     postinc0        equ	4078
    91   000FE6                     postinc1        equ	4070
    92   000FDE                     postinc2        equ	4062
    93   000FEC                     preinc0         equ	4076
    94   000FE4                     preinc1         equ	4068
    95   000FDC                     preinc2         equ	4060
    96   000FF3                     prod            equ	4083
    97   000FF4                     prodh           equ	4084
    98   000FF3                     prodl           equ	4083
    99   000FD8                     status          equ	4056
   100   000FF5                     tablat          equ	4085
   101   000FF6                     tblptr          equ	4086
   102   000FF7                     tblptrh         equ	4087
   103   000FF6                     tblptrl         equ	4086
   104   000FF8                     tblptru         equ	4088
   105   000FFD                     tosl            equ	4093
   106   000FE8                     wreg            equ	4072
   107   000F77                     SSPMSK          equ	3959	;# 
   108   000F78                     SLRCON          equ	3960	;# 
   109   000F79                     CM2CON1         equ	3961	;# 
   110   000F7A                     CM2CON0         equ	3962	;# 
   111   000F7B                     CM1CON0         equ	3963	;# 
   112   000F7C                     WPUB            equ	3964	;# 
   113   000F7D                     IOCB            equ	3965	;# 
   114   000F7E                     ANSEL           equ	3966	;# 
   115   000F7F                     ANSELH          equ	3967	;# 
   116   000F80                     PORTA           equ	3968	;# 
   117   000F81                     PORTB           equ	3969	;# 
   118   000F82                     PORTC           equ	3970	;# 
   119   000F83                     PORTD           equ	3971	;# 
   120   000F84                     PORTE           equ	3972	;# 
   121   000F89                     LATA            equ	3977	;# 
   122   000F8A                     LATB            equ	3978	;# 
   123   000F8B                     LATC            equ	3979	;# 
   124   000F8C                     LATD            equ	3980	;# 
   125   000F8D                     LATE            equ	3981	;# 
   126   000F92                     TRISA           equ	3986	;# 
   127   000F92                     DDRA            equ	3986	;# 
   128   000F93                     TRISB           equ	3987	;# 
   129   000F93                     DDRB            equ	3987	;# 
   130   000F94                     TRISC           equ	3988	;# 
   131   000F94                     DDRC            equ	3988	;# 
   132   000F95                     TRISD           equ	3989	;# 
   133   000F95                     DDRD            equ	3989	;# 
   134   000F96                     TRISE           equ	3990	;# 
   135   000F96                     DDRE            equ	3990	;# 
   136   000F9B                     OSCTUNE         equ	3995	;# 
   137   000F9D                     PIE1            equ	3997	;# 
   138   000F9E                     PIR1            equ	3998	;# 
   139   000F9F                     IPR1            equ	3999	;# 
   140   000FA0                     PIE2            equ	4000	;# 
   141   000FA1                     PIR2            equ	4001	;# 
   142   000FA2                     IPR2            equ	4002	;# 
   143   000FA6                     EECON1          equ	4006	;# 
   144   000FA7                     EECON2          equ	4007	;# 
   145   000FA8                     EEDATA          equ	4008	;# 
   146   000FA9                     EEADR           equ	4009	;# 
   147   000FAA                     EEADRH          equ	4010	;# 
   148   000FAB                     RCSTA           equ	4011	;# 
   149   000FAB                     RCSTA1          equ	4011	;# 
   150   000FAC                     TXSTA           equ	4012	;# 
   151   000FAC                     TXSTA1          equ	4012	;# 
   152   000FAD                     TXREG           equ	4013	;# 
   153   000FAD                     TXREG1          equ	4013	;# 
   154   000FAE                     RCREG           equ	4014	;# 
   155   000FAE                     RCREG1          equ	4014	;# 
   156   000FAF                     SPBRG           equ	4015	;# 
   157   000FAF                     SPBRG1          equ	4015	;# 
   158   000FB0                     SPBRGH          equ	4016	;# 
   159   000FB1                     T3CON           equ	4017	;# 
   160   000FB2                     TMR3            equ	4018	;# 
   161   000FB2                     TMR3L           equ	4018	;# 
   162   000FB3                     TMR3H           equ	4019	;# 
   163   000FB4                     CVRCON2         equ	4020	;# 
   164   000FB5                     CVRCON          equ	4021	;# 
   165   000FB6                     ECCP1AS         equ	4022	;# 
   166   000FB7                     PWM1CON         equ	4023	;# 
   167   000FB8                     BAUDCON         equ	4024	;# 
   168   000FB8                     BAUDCTL         equ	4024	;# 
   169   000FB9                     PSTRCON         equ	4025	;# 
   170   000FBA                     CCP2CON         equ	4026	;# 
   171   000FBB                     CCPR2           equ	4027	;# 
   172   000FBB                     CCPR2L          equ	4027	;# 
   173   000FBC                     CCPR2H          equ	4028	;# 
   174   000FBD                     CCP1CON         equ	4029	;# 
   175   000FBE                     CCPR1           equ	4030	;# 
   176   000FBE                     CCPR1L          equ	4030	;# 
   177   000FBF                     CCPR1H          equ	4031	;# 
   178   000FC0                     ADCON2          equ	4032	;# 
   179   000FC1                     ADCON1          equ	4033	;# 
   180   000FC2                     ADCON0          equ	4034	;# 
   181   000FC3                     ADRES           equ	4035	;# 
   182   000FC3                     ADRESL          equ	4035	;# 
   183   000FC4                     ADRESH          equ	4036	;# 
   184   000FC5                     SSPCON2         equ	4037	;# 
   185   000FC6                     SSPCON1         equ	4038	;# 
   186   000FC7                     SSPSTAT         equ	4039	;# 
   187   000FC8                     SSPADD          equ	4040	;# 
   188   000FC9                     SSPBUF          equ	4041	;# 
   189   000FCA                     T2CON           equ	4042	;# 
   190   000FCB                     PR2             equ	4043	;# 
   191   000FCB                     MEMCON          equ	4043	;# 
   192   000FCC                     TMR2            equ	4044	;# 
   193   000FCD                     T1CON           equ	4045	;# 
   194   000FCE                     TMR1            equ	4046	;# 
   195   000FCE                     TMR1L           equ	4046	;# 
   196   000FCF                     TMR1H           equ	4047	;# 
   197   000FD0                     RCON            equ	4048	;# 
   198   000FD1                     WDTCON          equ	4049	;# 
   199   000FD2                     HLVDCON         equ	4050	;# 
   200   000FD2                     LVDCON          equ	4050	;# 
   201   000FD3                     OSCCON          equ	4051	;# 
   202   000FD5                     T0CON           equ	4053	;# 
   203   000FD6                     TMR0            equ	4054	;# 
   204   000FD6                     TMR0L           equ	4054	;# 
   205   000FD7                     TMR0H           equ	4055	;# 
   206   000FD8                     STATUS          equ	4056	;# 
   207   000FD9                     FSR2            equ	4057	;# 
   208   000FD9                     FSR2L           equ	4057	;# 
   209   000FDA                     FSR2H           equ	4058	;# 
   210   000FDB                     PLUSW2          equ	4059	;# 
   211   000FDC                     PREINC2         equ	4060	;# 
   212   000FDD                     POSTDEC2        equ	4061	;# 
   213   000FDE                     POSTINC2        equ	4062	;# 
   214   000FDF                     INDF2           equ	4063	;# 
   215   000FE0                     BSR             equ	4064	;# 
   216   000FE1                     FSR1            equ	4065	;# 
   217   000FE1                     FSR1L           equ	4065	;# 
   218   000FE2                     FSR1H           equ	4066	;# 
   219   000FE3                     PLUSW1          equ	4067	;# 
   220   000FE4                     PREINC1         equ	4068	;# 
   221   000FE5                     POSTDEC1        equ	4069	;# 
   222   000FE6                     POSTINC1        equ	4070	;# 
   223   000FE7                     INDF1           equ	4071	;# 
   224   000FE8                     WREG            equ	4072	;# 
   225   000FE9                     FSR0            equ	4073	;# 
   226   000FE9                     FSR0L           equ	4073	;# 
   227   000FEA                     FSR0H           equ	4074	;# 
   228   000FEB                     PLUSW0          equ	4075	;# 
   229   000FEC                     PREINC0         equ	4076	;# 
   230   000FED                     POSTDEC0        equ	4077	;# 
   231   000FEE                     POSTINC0        equ	4078	;# 
   232   000FEF                     INDF0           equ	4079	;# 
   233   000FF0                     INTCON3         equ	4080	;# 
   234   000FF1                     INTCON2         equ	4081	;# 
   235   000FF2                     INTCON          equ	4082	;# 
   236   000FF3                     PROD            equ	4083	;# 
   237   000FF3                     PRODL           equ	4083	;# 
   238   000FF4                     PRODH           equ	4084	;# 
   239   000FF5                     TABLAT          equ	4085	;# 
   240   000FF6                     TBLPTR          equ	4086	;# 
   241   000FF6                     TBLPTRL         equ	4086	;# 
   242   000FF7                     TBLPTRH         equ	4087	;# 
   243   000FF8                     TBLPTRU         equ	4088	;# 
   244   000FF9                     PCLAT           equ	4089	;# 
   245   000FF9                     PC              equ	4089	;# 
   246   000FF9                     PCL             equ	4089	;# 
   247   000FFA                     PCLATH          equ	4090	;# 
   248   000FFB                     PCLATU          equ	4091	;# 
   249   000FFC                     STKPTR          equ	4092	;# 
   250   000FFD                     TOS             equ	4093	;# 
   251   000FFD                     TOSL            equ	4093	;# 
   252   000FFE                     TOSH            equ	4094	;# 
   253   000FFF                     TOSU            equ	4095	;# 
   254   000F77                     SSPMSK          equ	3959	;# 
   255   000F78                     SLRCON          equ	3960	;# 
   256   000F79                     CM2CON1         equ	3961	;# 
   257   000F7A                     CM2CON0         equ	3962	;# 
   258   000F7B                     CM1CON0         equ	3963	;# 
   259   000F7C                     WPUB            equ	3964	;# 
   260   000F7D                     IOCB            equ	3965	;# 
   261   000F7E                     ANSEL           equ	3966	;# 
   262   000F7F                     ANSELH          equ	3967	;# 
   263   000F80                     PORTA           equ	3968	;# 
   264   000F81                     PORTB           equ	3969	;# 
   265   000F82                     PORTC           equ	3970	;# 
   266   000F83                     PORTD           equ	3971	;# 
   267   000F84                     PORTE           equ	3972	;# 
   268   000F89                     LATA            equ	3977	;# 
   269   000F8A                     LATB            equ	3978	;# 
   270   000F8B                     LATC            equ	3979	;# 
   271   000F8C                     LATD            equ	3980	;# 
   272   000F8D                     LATE            equ	3981	;# 
   273   000F92                     TRISA           equ	3986	;# 
   274   000F92                     DDRA            equ	3986	;# 
   275   000F93                     TRISB           equ	3987	;# 
   276   000F93                     DDRB            equ	3987	;# 
   277   000F94                     TRISC           equ	3988	;# 
   278   000F94                     DDRC            equ	3988	;# 
   279   000F95                     TRISD           equ	3989	;# 
   280   000F95                     DDRD            equ	3989	;# 
   281   000F96                     TRISE           equ	3990	;# 
   282   000F96                     DDRE            equ	3990	;# 
   283   000F9B                     OSCTUNE         equ	3995	;# 
   284   000F9D                     PIE1            equ	3997	;# 
   285   000F9E                     PIR1            equ	3998	;# 
   286   000F9F                     IPR1            equ	3999	;# 
   287   000FA0                     PIE2            equ	4000	;# 
   288   000FA1                     PIR2            equ	4001	;# 
   289   000FA2                     IPR2            equ	4002	;# 
   290   000FA6                     EECON1          equ	4006	;# 
   291   000FA7                     EECON2          equ	4007	;# 
   292   000FA8                     EEDATA          equ	4008	;# 
   293   000FA9                     EEADR           equ	4009	;# 
   294   000FAA                     EEADRH          equ	4010	;# 
   295   000FAB                     RCSTA           equ	4011	;# 
   296   000FAB                     RCSTA1          equ	4011	;# 
   297   000FAC                     TXSTA           equ	4012	;# 
   298   000FAC                     TXSTA1          equ	4012	;# 
   299   000FAD                     TXREG           equ	4013	;# 
   300   000FAD                     TXREG1          equ	4013	;# 
   301   000FAE                     RCREG           equ	4014	;# 
   302   000FAE                     RCREG1          equ	4014	;# 
   303   000FAF                     SPBRG           equ	4015	;# 
   304   000FAF                     SPBRG1          equ	4015	;# 
   305   000FB0                     SPBRGH          equ	4016	;# 
   306   000FB1                     T3CON           equ	4017	;# 
   307   000FB2                     TMR3            equ	4018	;# 
   308   000FB2                     TMR3L           equ	4018	;# 
   309   000FB3                     TMR3H           equ	4019	;# 
   310   000FB4                     CVRCON2         equ	4020	;# 
   311   000FB5                     CVRCON          equ	4021	;# 
   312   000FB6                     ECCP1AS         equ	4022	;# 
   313   000FB7                     PWM1CON         equ	4023	;# 
   314   000FB8                     BAUDCON         equ	4024	;# 
   315   000FB8                     BAUDCTL         equ	4024	;# 
   316   000FB9                     PSTRCON         equ	4025	;# 
   317   000FBA                     CCP2CON         equ	4026	;# 
   318   000FBB                     CCPR2           equ	4027	;# 
   319   000FBB                     CCPR2L          equ	4027	;# 
   320   000FBC                     CCPR2H          equ	4028	;# 
   321   000FBD                     CCP1CON         equ	4029	;# 
   322   000FBE                     CCPR1           equ	4030	;# 
   323   000FBE                     CCPR1L          equ	4030	;# 
   324   000FBF                     CCPR1H          equ	4031	;# 
   325   000FC0                     ADCON2          equ	4032	;# 
   326   000FC1                     ADCON1          equ	4033	;# 
   327   000FC2                     ADCON0          equ	4034	;# 
   328   000FC3                     ADRES           equ	4035	;# 
   329   000FC3                     ADRESL          equ	4035	;# 
   330   000FC4                     ADRESH          equ	4036	;# 
   331   000FC5                     SSPCON2         equ	4037	;# 
   332   000FC6                     SSPCON1         equ	4038	;# 
   333   000FC7                     SSPSTAT         equ	4039	;# 
   334   000FC8                     SSPADD          equ	4040	;# 
   335   000FC9                     SSPBUF          equ	4041	;# 
   336   000FCA                     T2CON           equ	4042	;# 
   337   000FCB                     PR2             equ	4043	;# 
   338   000FCB                     MEMCON          equ	4043	;# 
   339   000FCC                     TMR2            equ	4044	;# 
   340   000FCD                     T1CON           equ	4045	;# 
   341   000FCE                     TMR1            equ	4046	;# 
   342   000FCE                     TMR1L           equ	4046	;# 
   343   000FCF                     TMR1H           equ	4047	;# 
   344   000FD0                     RCON            equ	4048	;# 
   345   000FD1                     WDTCON          equ	4049	;# 
   346   000FD2                     HLVDCON         equ	4050	;# 
   347   000FD2                     LVDCON          equ	4050	;# 
   348   000FD3                     OSCCON          equ	4051	;# 
   349   000FD5                     T0CON           equ	4053	;# 
   350   000FD6                     TMR0            equ	4054	;# 
   351   000FD6                     TMR0L           equ	4054	;# 
   352   000FD7                     TMR0H           equ	4055	;# 
   353   000FD8                     STATUS          equ	4056	;# 
   354   000FD9                     FSR2            equ	4057	;# 
   355   000FD9                     FSR2L           equ	4057	;# 
   356   000FDA                     FSR2H           equ	4058	;# 
   357   000FDB                     PLUSW2          equ	4059	;# 
   358   000FDC                     PREINC2         equ	4060	;# 
   359   000FDD                     POSTDEC2        equ	4061	;# 
   360   000FDE                     POSTINC2        equ	4062	;# 
   361   000FDF                     INDF2           equ	4063	;# 
   362   000FE0                     BSR             equ	4064	;# 
   363   000FE1                     FSR1            equ	4065	;# 
   364   000FE1                     FSR1L           equ	4065	;# 
   365   000FE2                     FSR1H           equ	4066	;# 
   366   000FE3                     PLUSW1          equ	4067	;# 
   367   000FE4                     PREINC1         equ	4068	;# 
   368   000FE5                     POSTDEC1        equ	4069	;# 
   369   000FE6                     POSTINC1        equ	4070	;# 
   370   000FE7                     INDF1           equ	4071	;# 
   371   000FE8                     WREG            equ	4072	;# 
   372   000FE9                     FSR0            equ	4073	;# 
   373   000FE9                     FSR0L           equ	4073	;# 
   374   000FEA                     FSR0H           equ	4074	;# 
   375   000FEB                     PLUSW0          equ	4075	;# 
   376   000FEC                     PREINC0         equ	4076	;# 
   377   000FED                     POSTDEC0        equ	4077	;# 
   378   000FEE                     POSTINC0        equ	4078	;# 
   379   000FEF                     INDF0           equ	4079	;# 
   380   000FF0                     INTCON3         equ	4080	;# 
   381   000FF1                     INTCON2         equ	4081	;# 
   382   000FF2                     INTCON          equ	4082	;# 
   383   000FF3                     PROD            equ	4083	;# 
   384   000FF3                     PRODL           equ	4083	;# 
   385   000FF4                     PRODH           equ	4084	;# 
   386   000FF5                     TABLAT          equ	4085	;# 
   387   000FF6                     TBLPTR          equ	4086	;# 
   388   000FF6                     TBLPTRL         equ	4086	;# 
   389   000FF7                     TBLPTRH         equ	4087	;# 
   390   000FF8                     TBLPTRU         equ	4088	;# 
   391   000FF9                     PCLAT           equ	4089	;# 
   392   000FF9                     PC              equ	4089	;# 
   393   000FF9                     PCL             equ	4089	;# 
   394   000FFA                     PCLATH          equ	4090	;# 
   395   000FFB                     PCLATU          equ	4091	;# 
   396   000FFC                     STKPTR          equ	4092	;# 
   397   000FFD                     TOS             equ	4093	;# 
   398   000FFD                     TOSL            equ	4093	;# 
   399   000FFE                     TOSH            equ	4094	;# 
   400   000FFF                     TOSU            equ	4095	;# 
   401   000F77                     SSPMSK          equ	3959	;# 
   402   000F78                     SLRCON          equ	3960	;# 
   403   000F79                     CM2CON1         equ	3961	;# 
   404   000F7A                     CM2CON0         equ	3962	;# 
   405   000F7B                     CM1CON0         equ	3963	;# 
   406   000F7C                     WPUB            equ	3964	;# 
   407   000F7D                     IOCB            equ	3965	;# 
   408   000F7E                     ANSEL           equ	3966	;# 
   409   000F7F                     ANSELH          equ	3967	;# 
   410   000F80                     PORTA           equ	3968	;# 
   411   000F81                     PORTB           equ	3969	;# 
   412   000F82                     PORTC           equ	3970	;# 
   413   000F83                     PORTD           equ	3971	;# 
   414   000F84                     PORTE           equ	3972	;# 
   415   000F89                     LATA            equ	3977	;# 
   416   000F8A                     LATB            equ	3978	;# 
   417   000F8B                     LATC            equ	3979	;# 
   418   000F8C                     LATD            equ	3980	;# 
   419   000F8D                     LATE            equ	3981	;# 
   420   000F92                     TRISA           equ	3986	;# 
   421   000F92                     DDRA            equ	3986	;# 
   422   000F93                     TRISB           equ	3987	;# 
   423   000F93                     DDRB            equ	3987	;# 
   424   000F94                     TRISC           equ	3988	;# 
   425   000F94                     DDRC            equ	3988	;# 
   426   000F95                     TRISD           equ	3989	;# 
   427   000F95                     DDRD            equ	3989	;# 
   428   000F96                     TRISE           equ	3990	;# 
   429   000F96                     DDRE            equ	3990	;# 
   430   000F9B                     OSCTUNE         equ	3995	;# 
   431   000F9D                     PIE1            equ	3997	;# 
   432   000F9E                     PIR1            equ	3998	;# 
   433   000F9F                     IPR1            equ	3999	;# 
   434   000FA0                     PIE2            equ	4000	;# 
   435   000FA1                     PIR2            equ	4001	;# 
   436   000FA2                     IPR2            equ	4002	;# 
   437   000FA6                     EECON1          equ	4006	;# 
   438   000FA7                     EECON2          equ	4007	;# 
   439   000FA8                     EEDATA          equ	4008	;# 
   440   000FA9                     EEADR           equ	4009	;# 
   441   000FAA                     EEADRH          equ	4010	;# 
   442   000FAB                     RCSTA           equ	4011	;# 
   443   000FAB                     RCSTA1          equ	4011	;# 
   444   000FAC                     TXSTA           equ	4012	;# 
   445   000FAC                     TXSTA1          equ	4012	;# 
   446   000FAD                     TXREG           equ	4013	;# 
   447   000FAD                     TXREG1          equ	4013	;# 
   448   000FAE                     RCREG           equ	4014	;# 
   449   000FAE                     RCREG1          equ	4014	;# 
   450   000FAF                     SPBRG           equ	4015	;# 
   451   000FAF                     SPBRG1          equ	4015	;# 
   452   000FB0                     SPBRGH          equ	4016	;# 
   453   000FB1                     T3CON           equ	4017	;# 
   454   000FB2                     TMR3            equ	4018	;# 
   455   000FB2                     TMR3L           equ	4018	;# 
   456   000FB3                     TMR3H           equ	4019	;# 
   457   000FB4                     CVRCON2         equ	4020	;# 
   458   000FB5                     CVRCON          equ	4021	;# 
   459   000FB6                     ECCP1AS         equ	4022	;# 
   460   000FB7                     PWM1CON         equ	4023	;# 
   461   000FB8                     BAUDCON         equ	4024	;# 
   462   000FB8                     BAUDCTL         equ	4024	;# 
   463   000FB9                     PSTRCON         equ	4025	;# 
   464   000FBA                     CCP2CON         equ	4026	;# 
   465   000FBB                     CCPR2           equ	4027	;# 
   466   000FBB                     CCPR2L          equ	4027	;# 
   467   000FBC                     CCPR2H          equ	4028	;# 
   468   000FBD                     CCP1CON         equ	4029	;# 
   469   000FBE                     CCPR1           equ	4030	;# 
   470   000FBE                     CCPR1L          equ	4030	;# 
   471   000FBF                     CCPR1H          equ	4031	;# 
   472   000FC0                     ADCON2          equ	4032	;# 
   473   000FC1                     ADCON1          equ	4033	;# 
   474   000FC2                     ADCON0          equ	4034	;# 
   475   000FC3                     ADRES           equ	4035	;# 
   476   000FC3                     ADRESL          equ	4035	;# 
   477   000FC4                     ADRESH          equ	4036	;# 
   478   000FC5                     SSPCON2         equ	4037	;# 
   479   000FC6                     SSPCON1         equ	4038	;# 
   480   000FC7                     SSPSTAT         equ	4039	;# 
   481   000FC8                     SSPADD          equ	4040	;# 
   482   000FC9                     SSPBUF          equ	4041	;# 
   483   000FCA                     T2CON           equ	4042	;# 
   484   000FCB                     PR2             equ	4043	;# 
   485   000FCB                     MEMCON          equ	4043	;# 
   486   000FCC                     TMR2            equ	4044	;# 
   487   000FCD                     T1CON           equ	4045	;# 
   488   000FCE                     TMR1            equ	4046	;# 
   489   000FCE                     TMR1L           equ	4046	;# 
   490   000FCF                     TMR1H           equ	4047	;# 
   491   000FD0                     RCON            equ	4048	;# 
   492   000FD1                     WDTCON          equ	4049	;# 
   493   000FD2                     HLVDCON         equ	4050	;# 
   494   000FD2                     LVDCON          equ	4050	;# 
   495   000FD3                     OSCCON          equ	4051	;# 
   496   000FD5                     T0CON           equ	4053	;# 
   497   000FD6                     TMR0            equ	4054	;# 
   498   000FD6                     TMR0L           equ	4054	;# 
   499   000FD7                     TMR0H           equ	4055	;# 
   500   000FD8                     STATUS          equ	4056	;# 
   501   000FD9                     FSR2            equ	4057	;# 
   502   000FD9                     FSR2L           equ	4057	;# 
   503   000FDA                     FSR2H           equ	4058	;# 
   504   000FDB                     PLUSW2          equ	4059	;# 
   505   000FDC                     PREINC2         equ	4060	;# 
   506   000FDD                     POSTDEC2        equ	4061	;# 
   507   000FDE                     POSTINC2        equ	4062	;# 
   508   000FDF                     INDF2           equ	4063	;# 
   509   000FE0                     BSR             equ	4064	;# 
   510   000FE1                     FSR1            equ	4065	;# 
   511   000FE1                     FSR1L           equ	4065	;# 
   512   000FE2                     FSR1H           equ	4066	;# 
   513   000FE3                     PLUSW1          equ	4067	;# 
   514   000FE4                     PREINC1         equ	4068	;# 
   515   000FE5                     POSTDEC1        equ	4069	;# 
   516   000FE6                     POSTINC1        equ	4070	;# 
   517   000FE7                     INDF1           equ	4071	;# 
   518   000FE8                     WREG            equ	4072	;# 
   519   000FE9                     FSR0            equ	4073	;# 
   520   000FE9                     FSR0L           equ	4073	;# 
   521   000FEA                     FSR0H           equ	4074	;# 
   522   000FEB                     PLUSW0          equ	4075	;# 
   523   000FEC                     PREINC0         equ	4076	;# 
   524   000FED                     POSTDEC0        equ	4077	;# 
   525   000FEE                     POSTINC0        equ	4078	;# 
   526   000FEF                     INDF0           equ	4079	;# 
   527   000FF0                     INTCON3         equ	4080	;# 
   528   000FF1                     INTCON2         equ	4081	;# 
   529   000FF2                     INTCON          equ	4082	;# 
   530   000FF3                     PROD            equ	4083	;# 
   531   000FF3                     PRODL           equ	4083	;# 
   532   000FF4                     PRODH           equ	4084	;# 
   533   000FF5                     TABLAT          equ	4085	;# 
   534   000FF6                     TBLPTR          equ	4086	;# 
   535   000FF6                     TBLPTRL         equ	4086	;# 
   536   000FF7                     TBLPTRH         equ	4087	;# 
   537   000FF8                     TBLPTRU         equ	4088	;# 
   538   000FF9                     PCLAT           equ	4089	;# 
   539   000FF9                     PC              equ	4089	;# 
   540   000FF9                     PCL             equ	4089	;# 
   541   000FFA                     PCLATH          equ	4090	;# 
   542   000FFB                     PCLATU          equ	4091	;# 
   543   000FFC                     STKPTR          equ	4092	;# 
   544   000FFD                     TOS             equ	4093	;# 
   545   000FFD                     TOSL            equ	4093	;# 
   546   000FFE                     TOSH            equ	4094	;# 
   547   000FFF                     TOSU            equ	4095	;# 
   548   000F77                     SSPMSK          equ	3959	;# 
   549   000F78                     SLRCON          equ	3960	;# 
   550   000F79                     CM2CON1         equ	3961	;# 
   551   000F7A                     CM2CON0         equ	3962	;# 
   552   000F7B                     CM1CON0         equ	3963	;# 
   553   000F7C                     WPUB            equ	3964	;# 
   554   000F7D                     IOCB            equ	3965	;# 
   555   000F7E                     ANSEL           equ	3966	;# 
   556   000F7F                     ANSELH          equ	3967	;# 
   557   000F80                     PORTA           equ	3968	;# 
   558   000F81                     PORTB           equ	3969	;# 
   559   000F82                     PORTC           equ	3970	;# 
   560   000F83                     PORTD           equ	3971	;# 
   561   000F84                     PORTE           equ	3972	;# 
   562   000F89                     LATA            equ	3977	;# 
   563   000F8A                     LATB            equ	3978	;# 
   564   000F8B                     LATC            equ	3979	;# 
   565   000F8C                     LATD            equ	3980	;# 
   566   000F8D                     LATE            equ	3981	;# 
   567   000F92                     TRISA           equ	3986	;# 
   568   000F92                     DDRA            equ	3986	;# 
   569   000F93                     TRISB           equ	3987	;# 
   570   000F93                     DDRB            equ	3987	;# 
   571   000F94                     TRISC           equ	3988	;# 
   572   000F94                     DDRC            equ	3988	;# 
   573   000F95                     TRISD           equ	3989	;# 
   574   000F95                     DDRD            equ	3989	;# 
   575   000F96                     TRISE           equ	3990	;# 
   576   000F96                     DDRE            equ	3990	;# 
   577   000F9B                     OSCTUNE         equ	3995	;# 
   578   000F9D                     PIE1            equ	3997	;# 
   579   000F9E                     PIR1            equ	3998	;# 
   580   000F9F                     IPR1            equ	3999	;# 
   581   000FA0                     PIE2            equ	4000	;# 
   582   000FA1                     PIR2            equ	4001	;# 
   583   000FA2                     IPR2            equ	4002	;# 
   584   000FA6                     EECON1          equ	4006	;# 
   585   000FA7                     EECON2          equ	4007	;# 
   586   000FA8                     EEDATA          equ	4008	;# 
   587   000FA9                     EEADR           equ	4009	;# 
   588   000FAA                     EEADRH          equ	4010	;# 
   589   000FAB                     RCSTA           equ	4011	;# 
   590   000FAB                     RCSTA1          equ	4011	;# 
   591   000FAC                     TXSTA           equ	4012	;# 
   592   000FAC                     TXSTA1          equ	4012	;# 
   593   000FAD                     TXREG           equ	4013	;# 
   594   000FAD                     TXREG1          equ	4013	;# 
   595   000FAE                     RCREG           equ	4014	;# 
   596   000FAE                     RCREG1          equ	4014	;# 
   597   000FAF                     SPBRG           equ	4015	;# 
   598   000FAF                     SPBRG1          equ	4015	;# 
   599   000FB0                     SPBRGH          equ	4016	;# 
   600   000FB1                     T3CON           equ	4017	;# 
   601   000FB2                     TMR3            equ	4018	;# 
   602   000FB2                     TMR3L           equ	4018	;# 
   603   000FB3                     TMR3H           equ	4019	;# 
   604   000FB4                     CVRCON2         equ	4020	;# 
   605   000FB5                     CVRCON          equ	4021	;# 
   606   000FB6                     ECCP1AS         equ	4022	;# 
   607   000FB7                     PWM1CON         equ	4023	;# 
   608   000FB8                     BAUDCON         equ	4024	;# 
   609   000FB8                     BAUDCTL         equ	4024	;# 
   610   000FB9                     PSTRCON         equ	4025	;# 
   611   000FBA                     CCP2CON         equ	4026	;# 
   612   000FBB                     CCPR2           equ	4027	;# 
   613   000FBB                     CCPR2L          equ	4027	;# 
   614   000FBC                     CCPR2H          equ	4028	;# 
   615   000FBD                     CCP1CON         equ	4029	;# 
   616   000FBE                     CCPR1           equ	4030	;# 
   617   000FBE                     CCPR1L          equ	4030	;# 
   618   000FBF                     CCPR1H          equ	4031	;# 
   619   000FC0                     ADCON2          equ	4032	;# 
   620   000FC1                     ADCON1          equ	4033	;# 
   621   000FC2                     ADCON0          equ	4034	;# 
   622   000FC3                     ADRES           equ	4035	;# 
   623   000FC3                     ADRESL          equ	4035	;# 
   624   000FC4                     ADRESH          equ	4036	;# 
   625   000FC5                     SSPCON2         equ	4037	;# 
   626   000FC6                     SSPCON1         equ	4038	;# 
   627   000FC7                     SSPSTAT         equ	4039	;# 
   628   000FC8                     SSPADD          equ	4040	;# 
   629   000FC9                     SSPBUF          equ	4041	;# 
   630   000FCA                     T2CON           equ	4042	;# 
   631   000FCB                     PR2             equ	4043	;# 
   632   000FCB                     MEMCON          equ	4043	;# 
   633   000FCC                     TMR2            equ	4044	;# 
   634   000FCD                     T1CON           equ	4045	;# 
   635   000FCE                     TMR1            equ	4046	;# 
   636   000FCE                     TMR1L           equ	4046	;# 
   637   000FCF                     TMR1H           equ	4047	;# 
   638   000FD0                     RCON            equ	4048	;# 
   639   000FD1                     WDTCON          equ	4049	;# 
   640   000FD2                     HLVDCON         equ	4050	;# 
   641   000FD2                     LVDCON          equ	4050	;# 
   642   000FD3                     OSCCON          equ	4051	;# 
   643   000FD5                     T0CON           equ	4053	;# 
   644   000FD6                     TMR0            equ	4054	;# 
   645   000FD6                     TMR0L           equ	4054	;# 
   646   000FD7                     TMR0H           equ	4055	;# 
   647   000FD8                     STATUS          equ	4056	;# 
   648   000FD9                     FSR2            equ	4057	;# 
   649   000FD9                     FSR2L           equ	4057	;# 
   650   000FDA                     FSR2H           equ	4058	;# 
   651   000FDB                     PLUSW2          equ	4059	;# 
   652   000FDC                     PREINC2         equ	4060	;# 
   653   000FDD                     POSTDEC2        equ	4061	;# 
   654   000FDE                     POSTINC2        equ	4062	;# 
   655   000FDF                     INDF2           equ	4063	;# 
   656   000FE0                     BSR             equ	4064	;# 
   657   000FE1                     FSR1            equ	4065	;# 
   658   000FE1                     FSR1L           equ	4065	;# 
   659   000FE2                     FSR1H           equ	4066	;# 
   660   000FE3                     PLUSW1          equ	4067	;# 
   661   000FE4                     PREINC1         equ	4068	;# 
   662   000FE5                     POSTDEC1        equ	4069	;# 
   663   000FE6                     POSTINC1        equ	4070	;# 
   664   000FE7                     INDF1           equ	4071	;# 
   665   000FE8                     WREG            equ	4072	;# 
   666   000FE9                     FSR0            equ	4073	;# 
   667   000FE9                     FSR0L           equ	4073	;# 
   668   000FEA                     FSR0H           equ	4074	;# 
   669   000FEB                     PLUSW0          equ	4075	;# 
   670   000FEC                     PREINC0         equ	4076	;# 
   671   000FED                     POSTDEC0        equ	4077	;# 
   672   000FEE                     POSTINC0        equ	4078	;# 
   673   000FEF                     INDF0           equ	4079	;# 
   674   000FF0                     INTCON3         equ	4080	;# 
   675   000FF1                     INTCON2         equ	4081	;# 
   676   000FF2                     INTCON          equ	4082	;# 
   677   000FF3                     PROD            equ	4083	;# 
   678   000FF3                     PRODL           equ	4083	;# 
   679   000FF4                     PRODH           equ	4084	;# 
   680   000FF5                     TABLAT          equ	4085	;# 
   681   000FF6                     TBLPTR          equ	4086	;# 
   682   000FF6                     TBLPTRL         equ	4086	;# 
   683   000FF7                     TBLPTRH         equ	4087	;# 
   684   000FF8                     TBLPTRU         equ	4088	;# 
   685   000FF9                     PCLAT           equ	4089	;# 
   686   000FF9                     PC              equ	4089	;# 
   687   000FF9                     PCL             equ	4089	;# 
   688   000FFA                     PCLATH          equ	4090	;# 
   689   000FFB                     PCLATU          equ	4091	;# 
   690   000FFC                     STKPTR          equ	4092	;# 
   691   000FFD                     TOS             equ	4093	;# 
   692   000FFD                     TOSL            equ	4093	;# 
   693   000FFE                     TOSH            equ	4094	;# 
   694   000FFF                     TOSU            equ	4095	;# 
   695   000F77                     SSPMSK          equ	3959	;# 
   696   000F78                     SLRCON          equ	3960	;# 
   697   000F79                     CM2CON1         equ	3961	;# 
   698   000F7A                     CM2CON0         equ	3962	;# 
   699   000F7B                     CM1CON0         equ	3963	;# 
   700   000F7C                     WPUB            equ	3964	;# 
   701   000F7D                     IOCB            equ	3965	;# 
   702   000F7E                     ANSEL           equ	3966	;# 
   703   000F7F                     ANSELH          equ	3967	;# 
   704   000F80                     PORTA           equ	3968	;# 
   705   000F81                     PORTB           equ	3969	;# 
   706   000F82                     PORTC           equ	3970	;# 
   707   000F83                     PORTD           equ	3971	;# 
   708   000F84                     PORTE           equ	3972	;# 
   709   000F89                     LATA            equ	3977	;# 
   710   000F8A                     LATB            equ	3978	;# 
   711   000F8B                     LATC            equ	3979	;# 
   712   000F8C                     LATD            equ	3980	;# 
   713   000F8D                     LATE            equ	3981	;# 
   714   000F92                     TRISA           equ	3986	;# 
   715   000F92                     DDRA            equ	3986	;# 
   716   000F93                     TRISB           equ	3987	;# 
   717   000F93                     DDRB            equ	3987	;# 
   718   000F94                     TRISC           equ	3988	;# 
   719   000F94                     DDRC            equ	3988	;# 
   720   000F95                     TRISD           equ	3989	;# 
   721   000F95                     DDRD            equ	3989	;# 
   722   000F96                     TRISE           equ	3990	;# 
   723   000F96                     DDRE            equ	3990	;# 
   724   000F9B                     OSCTUNE         equ	3995	;# 
   725   000F9D                     PIE1            equ	3997	;# 
   726   000F9E                     PIR1            equ	3998	;# 
   727   000F9F                     IPR1            equ	3999	;# 
   728   000FA0                     PIE2            equ	4000	;# 
   729   000FA1                     PIR2            equ	4001	;# 
   730   000FA2                     IPR2            equ	4002	;# 
   731   000FA6                     EECON1          equ	4006	;# 
   732   000FA7                     EECON2          equ	4007	;# 
   733   000FA8                     EEDATA          equ	4008	;# 
   734   000FA9                     EEADR           equ	4009	;# 
   735   000FAA                     EEADRH          equ	4010	;# 
   736   000FAB                     RCSTA           equ	4011	;# 
   737   000FAB                     RCSTA1          equ	4011	;# 
   738   000FAC                     TXSTA           equ	4012	;# 
   739   000FAC                     TXSTA1          equ	4012	;# 
   740   000FAD                     TXREG           equ	4013	;# 
   741   000FAD                     TXREG1          equ	4013	;# 
   742   000FAE                     RCREG           equ	4014	;# 
   743   000FAE                     RCREG1          equ	4014	;# 
   744   000FAF                     SPBRG           equ	4015	;# 
   745   000FAF                     SPBRG1          equ	4015	;# 
   746   000FB0                     SPBRGH          equ	4016	;# 
   747   000FB1                     T3CON           equ	4017	;# 
   748   000FB2                     TMR3            equ	4018	;# 
   749   000FB2                     TMR3L           equ	4018	;# 
   750   000FB3                     TMR3H           equ	4019	;# 
   751   000FB4                     CVRCON2         equ	4020	;# 
   752   000FB5                     CVRCON          equ	4021	;# 
   753   000FB6                     ECCP1AS         equ	4022	;# 
   754   000FB7                     PWM1CON         equ	4023	;# 
   755   000FB8                     BAUDCON         equ	4024	;# 
   756   000FB8                     BAUDCTL         equ	4024	;# 
   757   000FB9                     PSTRCON         equ	4025	;# 
   758   000FBA                     CCP2CON         equ	4026	;# 
   759   000FBB                     CCPR2           equ	4027	;# 
   760   000FBB                     CCPR2L          equ	4027	;# 
   761   000FBC                     CCPR2H          equ	4028	;# 
   762   000FBD                     CCP1CON         equ	4029	;# 
   763   000FBE                     CCPR1           equ	4030	;# 
   764   000FBE                     CCPR1L          equ	4030	;# 
   765   000FBF                     CCPR1H          equ	4031	;# 
   766   000FC0                     ADCON2          equ	4032	;# 
   767   000FC1                     ADCON1          equ	4033	;# 
   768   000FC2                     ADCON0          equ	4034	;# 
   769   000FC3                     ADRES           equ	4035	;# 
   770   000FC3                     ADRESL          equ	4035	;# 
   771   000FC4                     ADRESH          equ	4036	;# 
   772   000FC5                     SSPCON2         equ	4037	;# 
   773   000FC6                     SSPCON1         equ	4038	;# 
   774   000FC7                     SSPSTAT         equ	4039	;# 
   775   000FC8                     SSPADD          equ	4040	;# 
   776   000FC9                     SSPBUF          equ	4041	;# 
   777   000FCA                     T2CON           equ	4042	;# 
   778   000FCB                     PR2             equ	4043	;# 
   779   000FCB                     MEMCON          equ	4043	;# 
   780   000FCC                     TMR2            equ	4044	;# 
   781   000FCD                     T1CON           equ	4045	;# 
   782   000FCE                     TMR1            equ	4046	;# 
   783   000FCE                     TMR1L           equ	4046	;# 
   784   000FCF                     TMR1H           equ	4047	;# 
   785   000FD0                     RCON            equ	4048	;# 
   786   000FD1                     WDTCON          equ	4049	;# 
   787   000FD2                     HLVDCON         equ	4050	;# 
   788   000FD2                     LVDCON          equ	4050	;# 
   789   000FD3                     OSCCON          equ	4051	;# 
   790   000FD5                     T0CON           equ	4053	;# 
   791   000FD6                     TMR0            equ	4054	;# 
   792   000FD6                     TMR0L           equ	4054	;# 
   793   000FD7                     TMR0H           equ	4055	;# 
   794   000FD8                     STATUS          equ	4056	;# 
   795   000FD9                     FSR2            equ	4057	;# 
   796   000FD9                     FSR2L           equ	4057	;# 
   797   000FDA                     FSR2H           equ	4058	;# 
   798   000FDB                     PLUSW2          equ	4059	;# 
   799   000FDC                     PREINC2         equ	4060	;# 
   800   000FDD                     POSTDEC2        equ	4061	;# 
   801   000FDE                     POSTINC2        equ	4062	;# 
   802   000FDF                     INDF2           equ	4063	;# 
   803   000FE0                     BSR             equ	4064	;# 
   804   000FE1                     FSR1            equ	4065	;# 
   805   000FE1                     FSR1L           equ	4065	;# 
   806   000FE2                     FSR1H           equ	4066	;# 
   807   000FE3                     PLUSW1          equ	4067	;# 
   808   000FE4                     PREINC1         equ	4068	;# 
   809   000FE5                     POSTDEC1        equ	4069	;# 
   810   000FE6                     POSTINC1        equ	4070	;# 
   811   000FE7                     INDF1           equ	4071	;# 
   812   000FE8                     WREG            equ	4072	;# 
   813   000FE9                     FSR0            equ	4073	;# 
   814   000FE9                     FSR0L           equ	4073	;# 
   815   000FEA                     FSR0H           equ	4074	;# 
   816   000FEB                     PLUSW0          equ	4075	;# 
   817   000FEC                     PREINC0         equ	4076	;# 
   818   000FED                     POSTDEC0        equ	4077	;# 
   819   000FEE                     POSTINC0        equ	4078	;# 
   820   000FEF                     INDF0           equ	4079	;# 
   821   000FF0                     INTCON3         equ	4080	;# 
   822   000FF1                     INTCON2         equ	4081	;# 
   823   000FF2                     INTCON          equ	4082	;# 
   824   000FF3                     PROD            equ	4083	;# 
   825   000FF3                     PRODL           equ	4083	;# 
   826   000FF4                     PRODH           equ	4084	;# 
   827   000FF5                     TABLAT          equ	4085	;# 
   828   000FF6                     TBLPTR          equ	4086	;# 
   829   000FF6                     TBLPTRL         equ	4086	;# 
   830   000FF7                     TBLPTRH         equ	4087	;# 
   831   000FF8                     TBLPTRU         equ	4088	;# 
   832   000FF9                     PCLAT           equ	4089	;# 
   833   000FF9                     PC              equ	4089	;# 
   834   000FF9                     PCL             equ	4089	;# 
   835   000FFA                     PCLATH          equ	4090	;# 
   836   000FFB                     PCLATU          equ	4091	;# 
   837   000FFC                     STKPTR          equ	4092	;# 
   838   000FFD                     TOS             equ	4093	;# 
   839   000FFD                     TOSL            equ	4093	;# 
   840   000FFE                     TOSH            equ	4094	;# 
   841   000FFF                     TOSU            equ	4095	;# 
   842   000F77                     SSPMSK          equ	3959	;# 
   843   000F78                     SLRCON          equ	3960	;# 
   844   000F79                     CM2CON1         equ	3961	;# 
   845   000F7A                     CM2CON0         equ	3962	;# 
   846   000F7B                     CM1CON0         equ	3963	;# 
   847   000F7C                     WPUB            equ	3964	;# 
   848   000F7D                     IOCB            equ	3965	;# 
   849   000F7E                     ANSEL           equ	3966	;# 
   850   000F7F                     ANSELH          equ	3967	;# 
   851   000F80                     PORTA           equ	3968	;# 
   852   000F81                     PORTB           equ	3969	;# 
   853   000F82                     PORTC           equ	3970	;# 
   854   000F83                     PORTD           equ	3971	;# 
   855   000F84                     PORTE           equ	3972	;# 
   856   000F89                     LATA            equ	3977	;# 
   857   000F8A                     LATB            equ	3978	;# 
   858   000F8B                     LATC            equ	3979	;# 
   859   000F8C                     LATD            equ	3980	;# 
   860   000F8D                     LATE            equ	3981	;# 
   861   000F92                     TRISA           equ	3986	;# 
   862   000F92                     DDRA            equ	3986	;# 
   863   000F93                     TRISB           equ	3987	;# 
   864   000F93                     DDRB            equ	3987	;# 
   865   000F94                     TRISC           equ	3988	;# 
   866   000F94                     DDRC            equ	3988	;# 
   867   000F95                     TRISD           equ	3989	;# 
   868   000F95                     DDRD            equ	3989	;# 
   869   000F96                     TRISE           equ	3990	;# 
   870   000F96                     DDRE            equ	3990	;# 
   871   000F9B                     OSCTUNE         equ	3995	;# 
   872   000F9D                     PIE1            equ	3997	;# 
   873   000F9E                     PIR1            equ	3998	;# 
   874   000F9F                     IPR1            equ	3999	;# 
   875   000FA0                     PIE2            equ	4000	;# 
   876   000FA1                     PIR2            equ	4001	;# 
   877   000FA2                     IPR2            equ	4002	;# 
   878   000FA6                     EECON1          equ	4006	;# 
   879   000FA7                     EECON2          equ	4007	;# 
   880   000FA8                     EEDATA          equ	4008	;# 
   881   000FA9                     EEADR           equ	4009	;# 
   882   000FAA                     EEADRH          equ	4010	;# 
   883   000FAB                     RCSTA           equ	4011	;# 
   884   000FAB                     RCSTA1          equ	4011	;# 
   885   000FAC                     TXSTA           equ	4012	;# 
   886   000FAC                     TXSTA1          equ	4012	;# 
   887   000FAD                     TXREG           equ	4013	;# 
   888   000FAD                     TXREG1          equ	4013	;# 
   889   000FAE                     RCREG           equ	4014	;# 
   890   000FAE                     RCREG1          equ	4014	;# 
   891   000FAF                     SPBRG           equ	4015	;# 
   892   000FAF                     SPBRG1          equ	4015	;# 
   893   000FB0                     SPBRGH          equ	4016	;# 
   894   000FB1                     T3CON           equ	4017	;# 
   895   000FB2                     TMR3            equ	4018	;# 
   896   000FB2                     TMR3L           equ	4018	;# 
   897   000FB3                     TMR3H           equ	4019	;# 
   898   000FB4                     CVRCON2         equ	4020	;# 
   899   000FB5                     CVRCON          equ	4021	;# 
   900   000FB6                     ECCP1AS         equ	4022	;# 
   901   000FB7                     PWM1CON         equ	4023	;# 
   902   000FB8                     BAUDCON         equ	4024	;# 
   903   000FB8                     BAUDCTL         equ	4024	;# 
   904   000FB9                     PSTRCON         equ	4025	;# 
   905   000FBA                     CCP2CON         equ	4026	;# 
   906   000FBB                     CCPR2           equ	4027	;# 
   907   000FBB                     CCPR2L          equ	4027	;# 
   908   000FBC                     CCPR2H          equ	4028	;# 
   909   000FBD                     CCP1CON         equ	4029	;# 
   910   000FBE                     CCPR1           equ	4030	;# 
   911   000FBE                     CCPR1L          equ	4030	;# 
   912   000FBF                     CCPR1H          equ	4031	;# 
   913   000FC0                     ADCON2          equ	4032	;# 
   914   000FC1                     ADCON1          equ	4033	;# 
   915   000FC2                     ADCON0          equ	4034	;# 
   916   000FC3                     ADRES           equ	4035	;# 
   917   000FC3                     ADRESL          equ	4035	;# 
   918   000FC4                     ADRESH          equ	4036	;# 
   919   000FC5                     SSPCON2         equ	4037	;# 
   920   000FC6                     SSPCON1         equ	4038	;# 
   921   000FC7                     SSPSTAT         equ	4039	;# 
   922   000FC8                     SSPADD          equ	4040	;# 
   923   000FC9                     SSPBUF          equ	4041	;# 
   924   000FCA                     T2CON           equ	4042	;# 
   925   000FCB                     PR2             equ	4043	;# 
   926   000FCB                     MEMCON          equ	4043	;# 
   927   000FCC                     TMR2            equ	4044	;# 
   928   000FCD                     T1CON           equ	4045	;# 
   929   000FCE                     TMR1            equ	4046	;# 
   930   000FCE                     TMR1L           equ	4046	;# 
   931   000FCF                     TMR1H           equ	4047	;# 
   932   000FD0                     RCON            equ	4048	;# 
   933   000FD1                     WDTCON          equ	4049	;# 
   934   000FD2                     HLVDCON         equ	4050	;# 
   935   000FD2                     LVDCON          equ	4050	;# 
   936   000FD3                     OSCCON          equ	4051	;# 
   937   000FD5                     T0CON           equ	4053	;# 
   938   000FD6                     TMR0            equ	4054	;# 
   939   000FD6                     TMR0L           equ	4054	;# 
   940   000FD7                     TMR0H           equ	4055	;# 
   941   000FD8                     STATUS          equ	4056	;# 
   942   000FD9                     FSR2            equ	4057	;# 
   943   000FD9                     FSR2L           equ	4057	;# 
   944   000FDA                     FSR2H           equ	4058	;# 
   945   000FDB                     PLUSW2          equ	4059	;# 
   946   000FDC                     PREINC2         equ	4060	;# 
   947   000FDD                     POSTDEC2        equ	4061	;# 
   948   000FDE                     POSTINC2        equ	4062	;# 
   949   000FDF                     INDF2           equ	4063	;# 
   950   000FE0                     BSR             equ	4064	;# 
   951   000FE1                     FSR1            equ	4065	;# 
   952   000FE1                     FSR1L           equ	4065	;# 
   953   000FE2                     FSR1H           equ	4066	;# 
   954   000FE3                     PLUSW1          equ	4067	;# 
   955   000FE4                     PREINC1         equ	4068	;# 
   956   000FE5                     POSTDEC1        equ	4069	;# 
   957   000FE6                     POSTINC1        equ	4070	;# 
   958   000FE7                     INDF1           equ	4071	;# 
   959   000FE8                     WREG            equ	4072	;# 
   960   000FE9                     FSR0            equ	4073	;# 
   961   000FE9                     FSR0L           equ	4073	;# 
   962   000FEA                     FSR0H           equ	4074	;# 
   963   000FEB                     PLUSW0          equ	4075	;# 
   964   000FEC                     PREINC0         equ	4076	;# 
   965   000FED                     POSTDEC0        equ	4077	;# 
   966   000FEE                     POSTINC0        equ	4078	;# 
   967   000FEF                     INDF0           equ	4079	;# 
   968   000FF0                     INTCON3         equ	4080	;# 
   969   000FF1                     INTCON2         equ	4081	;# 
   970   000FF2                     INTCON          equ	4082	;# 
   971   000FF3                     PROD            equ	4083	;# 
   972   000FF3                     PRODL           equ	4083	;# 
   973   000FF4                     PRODH           equ	4084	;# 
   974   000FF5                     TABLAT          equ	4085	;# 
   975   000FF6                     TBLPTR          equ	4086	;# 
   976   000FF6                     TBLPTRL         equ	4086	;# 
   977   000FF7                     TBLPTRH         equ	4087	;# 
   978   000FF8                     TBLPTRU         equ	4088	;# 
   979   000FF9                     PCLAT           equ	4089	;# 
   980   000FF9                     PC              equ	4089	;# 
   981   000FF9                     PCL             equ	4089	;# 
   982   000FFA                     PCLATH          equ	4090	;# 
   983   000FFB                     PCLATU          equ	4091	;# 
   984   000FFC                     STKPTR          equ	4092	;# 
   985   000FFD                     TOS             equ	4093	;# 
   986   000FFD                     TOSL            equ	4093	;# 
   987   000FFE                     TOSH            equ	4094	;# 
   988   000FFF                     TOSU            equ	4095	;# 
   989   000F77                     SSPMSK          equ	3959	;# 
   990   000F78                     SLRCON          equ	3960	;# 
   991   000F79                     CM2CON1         equ	3961	;# 
   992   000F7A                     CM2CON0         equ	3962	;# 
   993   000F7B                     CM1CON0         equ	3963	;# 
   994   000F7C                     WPUB            equ	3964	;# 
   995   000F7D                     IOCB            equ	3965	;# 
   996   000F7E                     ANSEL           equ	3966	;# 
   997   000F7F                     ANSELH          equ	3967	;# 
   998   000F80                     PORTA           equ	3968	;# 
   999   000F81                     PORTB           equ	3969	;# 
  1000   000F82                     PORTC           equ	3970	;# 
  1001   000F83                     PORTD           equ	3971	;# 
  1002   000F84                     PORTE           equ	3972	;# 
  1003   000F89                     LATA            equ	3977	;# 
  1004   000F8A                     LATB            equ	3978	;# 
  1005   000F8B                     LATC            equ	3979	;# 
  1006   000F8C                     LATD            equ	3980	;# 
  1007   000F8D                     LATE            equ	3981	;# 
  1008   000F92                     TRISA           equ	3986	;# 
  1009   000F92                     DDRA            equ	3986	;# 
  1010   000F93                     TRISB           equ	3987	;# 
  1011   000F93                     DDRB            equ	3987	;# 
  1012   000F94                     TRISC           equ	3988	;# 
  1013   000F94                     DDRC            equ	3988	;# 
  1014   000F95                     TRISD           equ	3989	;# 
  1015   000F95                     DDRD            equ	3989	;# 
  1016   000F96                     TRISE           equ	3990	;# 
  1017   000F96                     DDRE            equ	3990	;# 
  1018   000F9B                     OSCTUNE         equ	3995	;# 
  1019   000F9D                     PIE1            equ	3997	;# 
  1020   000F9E                     PIR1            equ	3998	;# 
  1021   000F9F                     IPR1            equ	3999	;# 
  1022   000FA0                     PIE2            equ	4000	;# 
  1023   000FA1                     PIR2            equ	4001	;# 
  1024   000FA2                     IPR2            equ	4002	;# 
  1025   000FA6                     EECON1          equ	4006	;# 
  1026   000FA7                     EECON2          equ	4007	;# 
  1027   000FA8                     EEDATA          equ	4008	;# 
  1028   000FA9                     EEADR           equ	4009	;# 
  1029   000FAA                     EEADRH          equ	4010	;# 
  1030   000FAB                     RCSTA           equ	4011	;# 
  1031   000FAB                     RCSTA1          equ	4011	;# 
  1032   000FAC                     TXSTA           equ	4012	;# 
  1033   000FAC                     TXSTA1          equ	4012	;# 
  1034   000FAD                     TXREG           equ	4013	;# 
  1035   000FAD                     TXREG1          equ	4013	;# 
  1036   000FAE                     RCREG           equ	4014	;# 
  1037   000FAE                     RCREG1          equ	4014	;# 
  1038   000FAF                     SPBRG           equ	4015	;# 
  1039   000FAF                     SPBRG1          equ	4015	;# 
  1040   000FB0                     SPBRGH          equ	4016	;# 
  1041   000FB1                     T3CON           equ	4017	;# 
  1042   000FB2                     TMR3            equ	4018	;# 
  1043   000FB2                     TMR3L           equ	4018	;# 
  1044   000FB3                     TMR3H           equ	4019	;# 
  1045   000FB4                     CVRCON2         equ	4020	;# 
  1046   000FB5                     CVRCON          equ	4021	;# 
  1047   000FB6                     ECCP1AS         equ	4022	;# 
  1048   000FB7                     PWM1CON         equ	4023	;# 
  1049   000FB8                     BAUDCON         equ	4024	;# 
  1050   000FB8                     BAUDCTL         equ	4024	;# 
  1051   000FB9                     PSTRCON         equ	4025	;# 
  1052   000FBA                     CCP2CON         equ	4026	;# 
  1053   000FBB                     CCPR2           equ	4027	;# 
  1054   000FBB                     CCPR2L          equ	4027	;# 
  1055   000FBC                     CCPR2H          equ	4028	;# 
  1056   000FBD                     CCP1CON         equ	4029	;# 
  1057   000FBE                     CCPR1           equ	4030	;# 
  1058   000FBE                     CCPR1L          equ	4030	;# 
  1059   000FBF                     CCPR1H          equ	4031	;# 
  1060   000FC0                     ADCON2          equ	4032	;# 
  1061   000FC1                     ADCON1          equ	4033	;# 
  1062   000FC2                     ADCON0          equ	4034	;# 
  1063   000FC3                     ADRES           equ	4035	;# 
  1064   000FC3                     ADRESL          equ	4035	;# 
  1065   000FC4                     ADRESH          equ	4036	;# 
  1066   000FC5                     SSPCON2         equ	4037	;# 
  1067   000FC6                     SSPCON1         equ	4038	;# 
  1068   000FC7                     SSPSTAT         equ	4039	;# 
  1069   000FC8                     SSPADD          equ	4040	;# 
  1070   000FC9                     SSPBUF          equ	4041	;# 
  1071   000FCA                     T2CON           equ	4042	;# 
  1072   000FCB                     PR2             equ	4043	;# 
  1073   000FCB                     MEMCON          equ	4043	;# 
  1074   000FCC                     TMR2            equ	4044	;# 
  1075   000FCD                     T1CON           equ	4045	;# 
  1076   000FCE                     TMR1            equ	4046	;# 
  1077   000FCE                     TMR1L           equ	4046	;# 
  1078   000FCF                     TMR1H           equ	4047	;# 
  1079   000FD0                     RCON            equ	4048	;# 
  1080   000FD1                     WDTCON          equ	4049	;# 
  1081   000FD2                     HLVDCON         equ	4050	;# 
  1082   000FD2                     LVDCON          equ	4050	;# 
  1083   000FD3                     OSCCON          equ	4051	;# 
  1084   000FD5                     T0CON           equ	4053	;# 
  1085   000FD6                     TMR0            equ	4054	;# 
  1086   000FD6                     TMR0L           equ	4054	;# 
  1087   000FD7                     TMR0H           equ	4055	;# 
  1088   000FD8                     STATUS          equ	4056	;# 
  1089   000FD9                     FSR2            equ	4057	;# 
  1090   000FD9                     FSR2L           equ	4057	;# 
  1091   000FDA                     FSR2H           equ	4058	;# 
  1092   000FDB                     PLUSW2          equ	4059	;# 
  1093   000FDC                     PREINC2         equ	4060	;# 
  1094   000FDD                     POSTDEC2        equ	4061	;# 
  1095   000FDE                     POSTINC2        equ	4062	;# 
  1096   000FDF                     INDF2           equ	4063	;# 
  1097   000FE0                     BSR             equ	4064	;# 
  1098   000FE1                     FSR1            equ	4065	;# 
  1099   000FE1                     FSR1L           equ	4065	;# 
  1100   000FE2                     FSR1H           equ	4066	;# 
  1101   000FE3                     PLUSW1          equ	4067	;# 
  1102   000FE4                     PREINC1         equ	4068	;# 
  1103   000FE5                     POSTDEC1        equ	4069	;# 
  1104   000FE6                     POSTINC1        equ	4070	;# 
  1105   000FE7                     INDF1           equ	4071	;# 
  1106   000FE8                     WREG            equ	4072	;# 
  1107   000FE9                     FSR0            equ	4073	;# 
  1108   000FE9                     FSR0L           equ	4073	;# 
  1109   000FEA                     FSR0H           equ	4074	;# 
  1110   000FEB                     PLUSW0          equ	4075	;# 
  1111   000FEC                     PREINC0         equ	4076	;# 
  1112   000FED                     POSTDEC0        equ	4077	;# 
  1113   000FEE                     POSTINC0        equ	4078	;# 
  1114   000FEF                     INDF0           equ	4079	;# 
  1115   000FF0                     INTCON3         equ	4080	;# 
  1116   000FF1                     INTCON2         equ	4081	;# 
  1117   000FF2                     INTCON          equ	4082	;# 
  1118   000FF3                     PROD            equ	4083	;# 
  1119   000FF3                     PRODL           equ	4083	;# 
  1120   000FF4                     PRODH           equ	4084	;# 
  1121   000FF5                     TABLAT          equ	4085	;# 
  1122   000FF6                     TBLPTR          equ	4086	;# 
  1123   000FF6                     TBLPTRL         equ	4086	;# 
  1124   000FF7                     TBLPTRH         equ	4087	;# 
  1125   000FF8                     TBLPTRU         equ	4088	;# 
  1126   000FF9                     PCLAT           equ	4089	;# 
  1127   000FF9                     PC              equ	4089	;# 
  1128   000FF9                     PCL             equ	4089	;# 
  1129   000FFA                     PCLATH          equ	4090	;# 
  1130   000FFB                     PCLATU          equ	4091	;# 
  1131   000FFC                     STKPTR          equ	4092	;# 
  1132   000FFD                     TOS             equ	4093	;# 
  1133   000FFD                     TOSL            equ	4093	;# 
  1134   000FFE                     TOSH            equ	4094	;# 
  1135   000FFF                     TOSU            equ	4095	;# 
  1136   000F77                     SSPMSK          equ	3959	;# 
  1137   000F78                     SLRCON          equ	3960	;# 
  1138   000F79                     CM2CON1         equ	3961	;# 
  1139   000F7A                     CM2CON0         equ	3962	;# 
  1140   000F7B                     CM1CON0         equ	3963	;# 
  1141   000F7C                     WPUB            equ	3964	;# 
  1142   000F7D                     IOCB            equ	3965	;# 
  1143   000F7E                     ANSEL           equ	3966	;# 
  1144   000F7F                     ANSELH          equ	3967	;# 
  1145   000F80                     PORTA           equ	3968	;# 
  1146   000F81                     PORTB           equ	3969	;# 
  1147   000F82                     PORTC           equ	3970	;# 
  1148   000F83                     PORTD           equ	3971	;# 
  1149   000F84                     PORTE           equ	3972	;# 
  1150   000F89                     LATA            equ	3977	;# 
  1151   000F8A                     LATB            equ	3978	;# 
  1152   000F8B                     LATC            equ	3979	;# 
  1153   000F8C                     LATD            equ	3980	;# 
  1154   000F8D                     LATE            equ	3981	;# 
  1155   000F92                     TRISA           equ	3986	;# 
  1156   000F92                     DDRA            equ	3986	;# 
  1157   000F93                     TRISB           equ	3987	;# 
  1158   000F93                     DDRB            equ	3987	;# 
  1159   000F94                     TRISC           equ	3988	;# 
  1160   000F94                     DDRC            equ	3988	;# 
  1161   000F95                     TRISD           equ	3989	;# 
  1162   000F95                     DDRD            equ	3989	;# 
  1163   000F96                     TRISE           equ	3990	;# 
  1164   000F96                     DDRE            equ	3990	;# 
  1165   000F9B                     OSCTUNE         equ	3995	;# 
  1166   000F9D                     PIE1            equ	3997	;# 
  1167   000F9E                     PIR1            equ	3998	;# 
  1168   000F9F                     IPR1            equ	3999	;# 
  1169   000FA0                     PIE2            equ	4000	;# 
  1170   000FA1                     PIR2            equ	4001	;# 
  1171   000FA2                     IPR2            equ	4002	;# 
  1172   000FA6                     EECON1          equ	4006	;# 
  1173   000FA7                     EECON2          equ	4007	;# 
  1174   000FA8                     EEDATA          equ	4008	;# 
  1175   000FA9                     EEADR           equ	4009	;# 
  1176   000FAA                     EEADRH          equ	4010	;# 
  1177   000FAB                     RCSTA           equ	4011	;# 
  1178   000FAB                     RCSTA1          equ	4011	;# 
  1179   000FAC                     TXSTA           equ	4012	;# 
  1180   000FAC                     TXSTA1          equ	4012	;# 
  1181   000FAD                     TXREG           equ	4013	;# 
  1182   000FAD                     TXREG1          equ	4013	;# 
  1183   000FAE                     RCREG           equ	4014	;# 
  1184   000FAE                     RCREG1          equ	4014	;# 
  1185   000FAF                     SPBRG           equ	4015	;# 
  1186   000FAF                     SPBRG1          equ	4015	;# 
  1187   000FB0                     SPBRGH          equ	4016	;# 
  1188   000FB1                     T3CON           equ	4017	;# 
  1189   000FB2                     TMR3            equ	4018	;# 
  1190   000FB2                     TMR3L           equ	4018	;# 
  1191   000FB3                     TMR3H           equ	4019	;# 
  1192   000FB4                     CVRCON2         equ	4020	;# 
  1193   000FB5                     CVRCON          equ	4021	;# 
  1194   000FB6                     ECCP1AS         equ	4022	;# 
  1195   000FB7                     PWM1CON         equ	4023	;# 
  1196   000FB8                     BAUDCON         equ	4024	;# 
  1197   000FB8                     BAUDCTL         equ	4024	;# 
  1198   000FB9                     PSTRCON         equ	4025	;# 
  1199   000FBA                     CCP2CON         equ	4026	;# 
  1200   000FBB                     CCPR2           equ	4027	;# 
  1201   000FBB                     CCPR2L          equ	4027	;# 
  1202   000FBC                     CCPR2H          equ	4028	;# 
  1203   000FBD                     CCP1CON         equ	4029	;# 
  1204   000FBE                     CCPR1           equ	4030	;# 
  1205   000FBE                     CCPR1L          equ	4030	;# 
  1206   000FBF                     CCPR1H          equ	4031	;# 
  1207   000FC0                     ADCON2          equ	4032	;# 
  1208   000FC1                     ADCON1          equ	4033	;# 
  1209   000FC2                     ADCON0          equ	4034	;# 
  1210   000FC3                     ADRES           equ	4035	;# 
  1211   000FC3                     ADRESL          equ	4035	;# 
  1212   000FC4                     ADRESH          equ	4036	;# 
  1213   000FC5                     SSPCON2         equ	4037	;# 
  1214   000FC6                     SSPCON1         equ	4038	;# 
  1215   000FC7                     SSPSTAT         equ	4039	;# 
  1216   000FC8                     SSPADD          equ	4040	;# 
  1217   000FC9                     SSPBUF          equ	4041	;# 
  1218   000FCA                     T2CON           equ	4042	;# 
  1219   000FCB                     PR2             equ	4043	;# 
  1220   000FCB                     MEMCON          equ	4043	;# 
  1221   000FCC                     TMR2            equ	4044	;# 
  1222   000FCD                     T1CON           equ	4045	;# 
  1223   000FCE                     TMR1            equ	4046	;# 
  1224   000FCE                     TMR1L           equ	4046	;# 
  1225   000FCF                     TMR1H           equ	4047	;# 
  1226   000FD0                     RCON            equ	4048	;# 
  1227   000FD1                     WDTCON          equ	4049	;# 
  1228   000FD2                     HLVDCON         equ	4050	;# 
  1229   000FD2                     LVDCON          equ	4050	;# 
  1230   000FD3                     OSCCON          equ	4051	;# 
  1231   000FD5                     T0CON           equ	4053	;# 
  1232   000FD6                     TMR0            equ	4054	;# 
  1233   000FD6                     TMR0L           equ	4054	;# 
  1234   000FD7                     TMR0H           equ	4055	;# 
  1235   000FD8                     STATUS          equ	4056	;# 
  1236   000FD9                     FSR2            equ	4057	;# 
  1237   000FD9                     FSR2L           equ	4057	;# 
  1238   000FDA                     FSR2H           equ	4058	;# 
  1239   000FDB                     PLUSW2          equ	4059	;# 
  1240   000FDC                     PREINC2         equ	4060	;# 
  1241   000FDD                     POSTDEC2        equ	4061	;# 
  1242   000FDE                     POSTINC2        equ	4062	;# 
  1243   000FDF                     INDF2           equ	4063	;# 
  1244   000FE0                     BSR             equ	4064	;# 
  1245   000FE1                     FSR1            equ	4065	;# 
  1246   000FE1                     FSR1L           equ	4065	;# 
  1247   000FE2                     FSR1H           equ	4066	;# 
  1248   000FE3                     PLUSW1          equ	4067	;# 
  1249   000FE4                     PREINC1         equ	4068	;# 
  1250   000FE5                     POSTDEC1        equ	4069	;# 
  1251   000FE6                     POSTINC1        equ	4070	;# 
  1252   000FE7                     INDF1           equ	4071	;# 
  1253   000FE8                     WREG            equ	4072	;# 
  1254   000FE9                     FSR0            equ	4073	;# 
  1255   000FE9                     FSR0L           equ	4073	;# 
  1256   000FEA                     FSR0H           equ	4074	;# 
  1257   000FEB                     PLUSW0          equ	4075	;# 
  1258   000FEC                     PREINC0         equ	4076	;# 
  1259   000FED                     POSTDEC0        equ	4077	;# 
  1260   000FEE                     POSTINC0        equ	4078	;# 
  1261   000FEF                     INDF0           equ	4079	;# 
  1262   000FF0                     INTCON3         equ	4080	;# 
  1263   000FF1                     INTCON2         equ	4081	;# 
  1264   000FF2                     INTCON          equ	4082	;# 
  1265   000FF3                     PROD            equ	4083	;# 
  1266   000FF3                     PRODL           equ	4083	;# 
  1267   000FF4                     PRODH           equ	4084	;# 
  1268   000FF5                     TABLAT          equ	4085	;# 
  1269   000FF6                     TBLPTR          equ	4086	;# 
  1270   000FF6                     TBLPTRL         equ	4086	;# 
  1271   000FF7                     TBLPTRH         equ	4087	;# 
  1272   000FF8                     TBLPTRU         equ	4088	;# 
  1273   000FF9                     PCLAT           equ	4089	;# 
  1274   000FF9                     PC              equ	4089	;# 
  1275   000FF9                     PCL             equ	4089	;# 
  1276   000FFA                     PCLATH          equ	4090	;# 
  1277   000FFB                     PCLATU          equ	4091	;# 
  1278   000FFC                     STKPTR          equ	4092	;# 
  1279   000FFD                     TOS             equ	4093	;# 
  1280   000FFD                     TOSL            equ	4093	;# 
  1281   000FFE                     TOSH            equ	4094	;# 
  1282   000FFF                     TOSU            equ	4095	;# 
  1283                           
  1284 ;; Function _INT0_DefaultInterruptHandler is unused but had its address taken
  1285   000000                     _INT0_DefaultInterruptHandler equ	0
  1286                           
  1287 ;; Function _INT1_DefaultInterruptHandler is unused but had its address taken
  1288   000000                     _INT1_DefaultInterruptHandler equ	0
  1289                           
  1290 ;; Function _INT2_DefaultInterruptHandler is unused but had its address taken
  1291   000000                     _INT2_DefaultInterruptHandler equ	0
  1292                           
  1293 ;; Function _I2C1_Deinitialize is unused but had its address taken
  1294   000000                     _I2C1_Deinitialize equ	0
  1295                           
  1296 ;; Function _I2C1_WriteByte is unused but had its address taken
  1297   000000                     _I2C1_WriteByte equ	0
  1298                           
  1299 ;; Function _I2C1_ErrorGet is unused but had its address taken
  1300   000000                     _I2C1_ErrorGet  equ	0
  1301                           
  1302 ;; Function _I2C1_TransferDirGet is unused but had its address taken
  1303   000000                     _I2C1_TransferDirGet equ	0
  1304                           
  1305 ;; Function _I2C1_LastByteAckStatusGet is unused but had its address taken
  1306   000000                     _I2C1_LastByteAckStatusGet equ	0
  1307                           
  1308 ;; Function _TMR2_DefaultOverflowCallback is unused but had its address taken
  1309   000000                     _TMR2_DefaultOverflowCallback equ	0
  1310                           
  1311                           	psect	smallconst
  1312   001000                     __psmallconst:
  1313                           	callstack 0
  1314   001000  00                 	db	0
  1315   001001                     _I2C1_Client:
  1316                           	callstack 0
  1317   001001  62                 	db	low _I2C1_Initialize
  1318   001002  13                 	db	high _I2C1_Initialize
  1319   001003  00                 	db	0
  1320   001004  00                 	db	0
  1321   001005  00                 	db	0
  1322   001006  00                 	db	0
  1323   001007  30                 	db	low _I2C1_ReadByte
  1324   001008  14                 	db	high _I2C1_ReadByte
  1325   001009  00                 	db	0
  1326   00100A  00                 	db	0
  1327   00100B  00                 	db	0
  1328   00100C  00                 	db	0
  1329   00100D  00                 	db	0
  1330   00100E  00                 	db	0
  1331   00100F  86                 	db	low _I2C1_CallbackRegister
  1332   001010  13                 	db	high _I2C1_CallbackRegister
  1333   001011  00                 	db	0
  1334   001012  00                 	db	0
  1335   001013                     __end_of_I2C1_Client:
  1336                           	callstack 0
  1337   000FCA                     _T2CONbits      set	4042
  1338   000FCA                     _T2CON          set	4042
  1339   000FCC                     _TMR2           set	4044
  1340   000FCB                     _PR2            set	4043
  1341   000FB1                     _T3CONbits      set	4017
  1342   000FBB                     _CCPR2L         set	4027
  1343   000FBC                     _CCPR2H         set	4028
  1344   000FBA                     _CCP2CON        set	4026
  1345   000F8B                     _LATCbits       set	3979
  1346   000F82                     _PORTCbits      set	3970
  1347   000F8C                     _LATDbits       set	3980
  1348   000FC5                     _SSPCON2bits    set	4037
  1349   000FC7                     _SSPSTATbits    set	4039
  1350   000FC9                     _SSPBUF         set	4041
  1351   000FC6                     _SSPCON1bits    set	4038
  1352   000F77                     _SSPMSK         set	3959
  1353   000FC8                     _SSPADD         set	4040
  1354   000FC5                     _SSPCON2        set	4037
  1355   000FC6                     _SSPCON1        set	4038
  1356   000FC7                     _SSPSTAT        set	4039
  1357   000F7D                     _IOCB           set	3965
  1358   000F7C                     _WPUB           set	3964
  1359   000F7F                     _ANSELH         set	3967
  1360   000F96                     _TRISE          set	3990
  1361   000F95                     _TRISD          set	3989
  1362   000F94                     _TRISC          set	3988
  1363   000F93                     _TRISB          set	3987
  1364   000F92                     _TRISA          set	3986
  1365   000F8D                     _LATE           set	3981
  1366   000F8C                     _LATD           set	3980
  1367   000F8B                     _LATC           set	3979
  1368   000F8A                     _LATB           set	3978
  1369   000F89                     _LATA           set	3977
  1370   000F9B                     _OSCTUNE        set	3995
  1371   000FD3                     _OSCCON         set	4051
  1372   000F9E                     _PIR1bits       set	3998
  1373   000F9D                     _PIE1bits       set	3997
  1374   000FA1                     _PIR2bits       set	4001
  1375   000FA0                     _PIE2bits       set	4000
  1376   000FF0                     _INTCON3bits    set	4080
  1377   000FF1                     _INTCON2bits    set	4081
  1378   000FF2                     _INTCONbits     set	4082
  1379   000FD0                     _RCONbits       set	4048
  1380   001013  00                 	db	0	; dummy byte at the end
  1381   000003                     __activetblptr  equ	3
  1382                           
  1383                           ; #config settings
  1384                           
  1385                           	psect	cinit
  1386   0013D8                     __pcinit:
  1387                           	callstack 0
  1388   0013D8                     start_initialization:
  1389                           	callstack 0
  1390   0013D8                     __initialization:
  1391                           	callstack 0
  1392                           
  1393                           ; Clear objects allocated to COMRAM (15 bytes)
  1394   0013D8  EE00  F001         	lfsr	0,__pbssCOMRAM
  1395   0013DC  0E0F               	movlw	15
  1396   0013DE                     clear_0:
  1397   0013DE  6AEE               	clrf	postinc0,c
  1398   0013E0  06E8               	decf	wreg,f,c
  1399   0013E2  E1FD               	bnz	clear_0
  1400   0013E4                     end_of_initialization:
  1401                           	callstack 0
  1402   0013E4                     __end_of__initialization:
  1403                           	callstack 0
  1404   0013E4  901B               	bcf	int$flags,0,c	;clear compiler interrupt flag (level 1)
  1405   0013E6  921B               	bcf	int$flags,1,c	;clear compiler interrupt flag (level 2)
  1406   0013E8  0100               	movlb	0
  1407   0013EA  EFD7  F008         	goto	_main	;jump to C main() function
  1408                           
  1409                           	psect	bssCOMRAM
  1410   000001                     __pbssCOMRAM:
  1411                           	callstack 0
  1412   000001                     _TMR2_OverflowCallback:
  1413                           	callstack 0
  1414   000001                     	ds	2
  1415   000003                     _I2C1_InterruptHandler:
  1416                           	callstack 0
  1417   000003                     	ds	2
  1418   000005                     _i2c1Addr:
  1419                           	callstack 0
  1420   000005                     	ds	2
  1421   000007                     _INT2_InterruptHandler:
  1422                           	callstack 0
  1423   000007                     	ds	2
  1424   000009                     _INT1_InterruptHandler:
  1425                           	callstack 0
  1426   000009                     	ds	2
  1427   00000B                     _INT0_InterruptHandler:
  1428                           	callstack 0
  1429   00000B                     	ds	2
  1430   00000D                     _i2c_interrupt_counter:
  1431                           	callstack 0
  1432   00000D                     	ds	1
  1433   00000E                     _i2c_received_data:
  1434                           	callstack 0
  1435   00000E                     	ds	1
  1436   00000F                     _i2c1ErrorState:
  1437                           	callstack 0
  1438   00000F                     	ds	1
  1439                           
  1440                           	psect	cstackCOMRAM
  1441   000010                     __pcstackCOMRAM:
  1442                           	callstack 0
  1443   000010                     I2C_InterruptHandler@clientEvent:
  1444                           	callstack 0
  1445   000010                     
  1446                           ; 1 bytes @ 0x0
  1447   000010                     	ds	1
  1448   000011                     ??_I2C1_EventHandler:
  1449   000011                     
  1450                           ; 1 bytes @ 0x1
  1451   000011                     	ds	2
  1452   000013                     ??_INTERRUPT_InterruptManager:
  1453                           
  1454                           ; 1 bytes @ 0x3
  1455   000013                     	ds	2
  1456   000015                     I2C1_CallbackRegister@callback:
  1457                           	callstack 0
  1458   000015                     CCP2_LoadDutyValue@dutyValue:
  1459                           	callstack 0
  1460   000015                     TMR2_OverflowCallbackRegister@InterruptHandler:
  1461                           	callstack 0
  1462   000015                     
  1463                           ; 1 bytes @ 0x5
  1464   000015                     	ds	2
  1465   000017                     ??_CCP2_LoadDutyValue:
  1466   000017                     
  1467                           ; 1 bytes @ 0x7
  1468   000017                     	ds	2
  1469   000019                     ??_main:
  1470                           
  1471                           ; 1 bytes @ 0x9
  1472   000019                     	ds	1
  1473   00001A                     main@toggle_dir_flag:
  1474                           	callstack 0
  1475                           
  1476                           ; 1 bytes @ 0xA
  1477   00001A                     	ds	1
  1478                           
  1479 ;;
  1480 ;;Main: autosize = 0, tempsize = 1, incstack = 0, save=0
  1481 ;;
  1482 ;; *************** function _main *****************
  1483 ;; Defined at:
  1484 ;;		line 57 in file "main.c"
  1485 ;; Parameters:    Size  Location     Type
  1486 ;;		None
  1487 ;; Auto vars:     Size  Location     Type
  1488 ;;  toggle_dir_f    1   10[COMRAM] unsigned char 
  1489 ;; Return value:  Size  Location     Type
  1490 ;;                  2  295[None  ] int 
  1491 ;; Registers used:
  1492 ;;		wreg, status,2, status,0, cstack
  1493 ;; Tracked objects:
  1494 ;;		On entry : 0/0
  1495 ;;		On exit  : 0/0
  1496 ;;		Unchanged: 0/0
  1497 ;; Data sizes:     COMRAM   BANK0   BANK1   BANK2   BANK3   BANK4   BANK5   BANK6   BANK7   BANK8   BANK9  BANK10  BANK1
      +1  BANK12  BANK13  BANK14  BANK15
  1498 ;;      Params:         0       0       0       0       0       0       0       0       0       0       0       0       
      +0       0       0       0       0
  1499 ;;      Locals:         1       0       0       0       0       0       0       0       0       0       0       0       
      +0       0       0       0       0
  1500 ;;      Temps:          1       0       0       0       0       0       0       0       0       0       0       0       
      +0       0       0       0       0
  1501 ;;      Totals:         2       0       0       0       0       0       0       0       0       0       0       0       
      +0       0       0       0       0
  1502 ;;Total ram usage:        2 bytes
  1503 ;; Hardware stack levels required when called: 7
  1504 ;; This function calls:
  1505 ;;		_CCP2_LoadDutyValue
  1506 ;;		_I2C1_CallbackRegister
  1507 ;;		_SYSTEM_Initialize
  1508 ;; This function is called by:
  1509 ;;		Startup code after reset
  1510 ;; This function uses a non-reentrant model
  1511 ;;
  1512                           
  1513                           	psect	text0
  1514   0011AE                     __ptext0:
  1515                           	callstack 0
  1516   0011AE                     _main:
  1517                           	callstack 24
  1518   0011AE                     
  1519                           ;main.c: 63:     SYSTEM_Initialize();
  1520   0011AE  ECF7  F009         	call	_SYSTEM_Initialize
  1521                           
  1522                           ;main.c: 64:     I2C1_CallbackRegister(I2C_InterruptHandler);
  1523   0011B2  0EA2               	movlw	low _I2C_InterruptHandler
  1524   0011B4  6E15               	movwf	I2C1_CallbackRegister@callback^0,c
  1525   0011B6  0E13               	movlw	high _I2C_InterruptHandler
  1526   0011B8  6E16               	movwf	(I2C1_CallbackRegister@callback+1)^0,c
  1527   0011BA  ECC3  F009         	call	_I2C1_CallbackRegister	;wreg free
  1528   0011BE                     
  1529                           ;main.c: 66:     (INTCONbits.GIE = 1);
  1530   0011BE  8EF2               	bsf	242,7,c	;volatile
  1531   0011C0                     
  1532                           ;main.c: 67:     (INTCONbits.PEIE = 1);
  1533   0011C0  8CF2               	bsf	242,6,c	;volatile
  1534   0011C2  848C               	bsf	140,2,c	;volatile
  1535   0011C4  968C               	bcf	140,3,c	;volatile
  1536   0011C6                     
  1537                           ;main.c: 73:     uint8_t toggle_dir_flag = 0;
  1538   0011C6  6A1A               	clrf	main@toggle_dir_flag^0,c
  1539   0011C8                     l1398:
  1540                           
  1541                           ;main.c: 81:         if (!(PORTCbits.RC7)) {
  1542   0011C8  BE82               	btfsc	130,7,c	;volatile
  1543   0011CA  EFE9  F008         	goto	u441
  1544   0011CE  EFEB  F008         	goto	u440
  1545   0011D2                     u441:
  1546   0011D2  EF1C  F009         	goto	l301
  1547   0011D6                     u440:
  1548   0011D6                     
  1549                           ;main.c: 82:             if (toggle_dir_flag == 0) {
  1550   0011D6  501A               	movf	main@toggle_dir_flag^0,w,c
  1551   0011D8  A4D8               	btfss	status,2,c
  1552   0011DA  EFF1  F008         	goto	u451
  1553   0011DE  EFF3  F008         	goto	u450
  1554   0011E2                     u451:
  1555   0011E2  EF1D  F009         	goto	l1408
  1556   0011E6                     u450:
  1557   0011E6                     
  1558                           ;main.c: 83:                 toggle_dir_flag = 1;
  1559   0011E6  0E01               	movlw	1
  1560   0011E8  6E1A               	movwf	main@toggle_dir_flag^0,c
  1561   0011EA  B48C               	btfsc	140,2,c	;volatile
  1562   0011EC  EFFA  F008         	goto	u461
  1563   0011F0  EFFD  F008         	goto	u460
  1564   0011F4                     u461:
  1565   0011F4  0E01               	movlw	1
  1566   0011F6  EFFE  F008         	goto	u466
  1567   0011FA                     u460:
  1568   0011FA  0E00               	movlw	0
  1569   0011FC                     u466:
  1570   0011FC  0AFF               	xorlw	255
  1571   0011FE  6E19               	movwf	??_main^0,c
  1572   001200  4619               	rlncf	??_main^0,f,c
  1573   001202  4619               	rlncf	??_main^0,f,c
  1574   001204  508C               	movf	140,w,c	;volatile
  1575   001206  1819               	xorwf	??_main^0,w,c
  1576   001208  0BFB               	andlw	-5
  1577   00120A  1819               	xorwf	??_main^0,w,c
  1578   00120C  6E8C               	movwf	140,c	;volatile
  1579   00120E  B68C               	btfsc	140,3,c	;volatile
  1580   001210  EF0C  F009         	goto	u471
  1581   001214  EF0F  F009         	goto	u470
  1582   001218                     u471:
  1583   001218  0E01               	movlw	1
  1584   00121A  EF10  F009         	goto	u476
  1585   00121E                     u470:
  1586   00121E  0E00               	movlw	0
  1587   001220                     u476:
  1588   001220  0AFF               	xorlw	255
  1589   001222  6E19               	movwf	??_main^0,c
  1590   001224  4619               	rlncf	??_main^0,f,c
  1591   001226  4619               	rlncf	??_main^0,f,c
  1592   001228  4619               	rlncf	??_main^0,f,c
  1593   00122A  508C               	movf	140,w,c	;volatile
  1594   00122C  1819               	xorwf	??_main^0,w,c
  1595   00122E  0BF7               	andlw	-9
  1596   001230  1819               	xorwf	??_main^0,w,c
  1597   001232  6E8C               	movwf	140,c	;volatile
  1598   001234  EF1D  F009         	goto	l1408
  1599   001238                     l301:
  1600                           
  1601                           ;main.c: 88:             toggle_dir_flag = 0;
  1602   001238  6A1A               	clrf	main@toggle_dir_flag^0,c
  1603   00123A                     l1408:
  1604                           
  1605                           ;main.c: 92:         if (i2c_interrupt_counter) {
  1606   00123A  500D               	movf	_i2c_interrupt_counter^0,w,c	;volatile
  1607   00123C  B4D8               	btfsc	status,2,c
  1608   00123E  EF23  F009         	goto	u481
  1609   001242  EF25  F009         	goto	u480
  1610   001246                     u481:
  1611   001246  EFE4  F008         	goto	l1398
  1612   00124A                     u480:
  1613   00124A                     
  1614                           ;main.c: 93:             i2c_interrupt_counter--;
  1615   00124A  060D               	decf	_i2c_interrupt_counter^0,f,c	;volatile
  1616   00124C  908B               	bcf	139,0,c	;volatile
  1617   00124E  EF42  F009         	goto	l1424
  1618   001252                     l1414:
  1619                           
  1620                           ;main.c: 99:                     CCP2_LoadDutyValue((155.5 * 4 * 0.5));
  1621   001252  0E01               	movlw	1
  1622   001254  6E16               	movwf	(CCP2_LoadDutyValue@dutyValue+1)^0,c
  1623   001256  0E37               	movlw	55
  1624   001258  6E15               	movwf	CCP2_LoadDutyValue@dutyValue^0,c
  1625   00125A  EC85  F009         	call	_CCP2_LoadDutyValue	;wreg free
  1626                           
  1627                           ;main.c: 100:                     break;
  1628   00125E  EFE4  F008         	goto	l1398
  1629   001262                     l1416:
  1630                           
  1631                           ;main.c: 102:                     CCP2_LoadDutyValue((155.5 * 4 * 0.75));
  1632   001262  0E01               	movlw	1
  1633   001264  6E16               	movwf	(CCP2_LoadDutyValue@dutyValue+1)^0,c
  1634   001266  0ED2               	movlw	210
  1635   001268  6E15               	movwf	CCP2_LoadDutyValue@dutyValue^0,c
  1636   00126A  EC85  F009         	call	_CCP2_LoadDutyValue	;wreg free
  1637                           
  1638                           ;main.c: 103:                     break;
  1639   00126E  EFE4  F008         	goto	l1398
  1640   001272                     l1418:
  1641                           
  1642                           ;main.c: 105:                     CCP2_LoadDutyValue((155.5 * 4));
  1643   001272  0E02               	movlw	2
  1644   001274  6E16               	movwf	(CCP2_LoadDutyValue@dutyValue+1)^0,c
  1645   001276  0E6E               	movlw	110
  1646   001278  6E15               	movwf	CCP2_LoadDutyValue@dutyValue^0,c
  1647   00127A  EC85  F009         	call	_CCP2_LoadDutyValue	;wreg free
  1648   00127E  808B               	bsf	139,0,c	;volatile
  1649   001280  EFE4  F008         	goto	l1398
  1650   001284                     l1424:
  1651   001284  500E               	movf	_i2c_received_data^0,w,c	;volatile
  1652                           
  1653                           ; Switch size 1, requested type "simple"
  1654                           ; Number of cases is 3, Range of values is 0 to 2
  1655                           ; switch strategies available:
  1656                           ; Name         Instructions Cycles
  1657                           ; simple_byte           10     6 (average)
  1658                           ;	Chosen strategy is simple_byte
  1659   001286  0A00               	xorlw	0	; case 0
  1660   001288  B4D8               	btfsc	status,2,c
  1661   00128A  EF29  F009         	goto	l1414
  1662   00128E  0A01               	xorlw	1	; case 1
  1663   001290  B4D8               	btfsc	status,2,c
  1664   001292  EF31  F009         	goto	l1416
  1665   001296  0A03               	xorlw	3	; case 2
  1666   001298  B4D8               	btfsc	status,2,c
  1667   00129A  EF39  F009         	goto	l1418
  1668   00129E  EFE4  F008         	goto	l1398
  1669   0012A2  EF36  F000         	goto	start
  1670   0012A6                     __end_of_main:
  1671                           	callstack 0
  1672                           
  1673 ;; *************** function _SYSTEM_Initialize *****************
  1674 ;; Defined at:
  1675 ;;		line 39 in file "mcc_generated_files/system/src/system.c"
  1676 ;; Parameters:    Size  Location     Type
  1677 ;;		None
  1678 ;; Auto vars:     Size  Location     Type
  1679 ;;		None
  1680 ;; Return value:  Size  Location     Type
  1681 ;;                  1    wreg      void 
  1682 ;; Registers used:
  1683 ;;		wreg, status,2, status,0, cstack
  1684 ;; Tracked objects:
  1685 ;;		On entry : 0/0
  1686 ;;		On exit  : 0/0
  1687 ;;		Unchanged: 0/0
  1688 ;; Data sizes:     COMRAM   BANK0   BANK1   BANK2   BANK3   BANK4   BANK5   BANK6   BANK7   BANK8   BANK9  BANK10  BANK1
      +1  BANK12  BANK13  BANK14  BANK15
  1689 ;;      Params:         0       0       0       0       0       0       0       0       0       0       0       0       
      +0       0       0       0       0
  1690 ;;      Locals:         0       0       0       0       0       0       0       0       0       0       0       0       
      +0       0       0       0       0
  1691 ;;      Temps:          0       0       0       0       0       0       0       0       0       0       0       0       
      +0       0       0       0       0
  1692 ;;      Totals:         0       0       0       0       0       0       0       0       0       0       0       0       
      +0       0       0       0       0
  1693 ;;Total ram usage:        0 bytes
  1694 ;; Hardware stack levels used: 1
  1695 ;; Hardware stack levels required when called: 6
  1696 ;; This function calls:
  1697 ;;		_CCP2_Initialize
  1698 ;;		_CLOCK_Initialize
  1699 ;;		_I2C1_Initialize
  1700 ;;		_PIN_MANAGER_Initialize
  1701 ;;		_TMR2_Initialize
  1702 ;; This function is called by:
  1703 ;;		_main
  1704 ;; This function uses a non-reentrant model
  1705 ;;
  1706                           
  1707                           	psect	text1
  1708   0013EE                     __ptext1:
  1709                           	callstack 0
  1710   0013EE                     _SYSTEM_Initialize:
  1711                           	callstack 24
  1712   0013EE                     
  1713                           ;mcc_generated_files/system/src/system.c: 41:     CLOCK_Initialize();
  1714   0013EE  EC0E  F00A         	call	_CLOCK_Initialize	;wreg free
  1715                           
  1716                           ;mcc_generated_files/system/src/system.c: 42:     PIN_MANAGER_Initialize();
  1717   0013F2  EC9D  F009         	call	_PIN_MANAGER_Initialize	;wreg free
  1718   0013F6                     
  1719                           ;mcc_generated_files/system/src/system.c: 43:     I2C1_Initialize();
  1720   0013F6  ECB1  F009         	call	_I2C1_Initialize	;wreg free
  1721   0013FA                     
  1722                           ;mcc_generated_files/system/src/system.c: 44:     CCP2_Initialize();
  1723   0013FA  EC02  F00A         	call	_CCP2_Initialize	;wreg free
  1724                           
  1725                           ;mcc_generated_files/system/src/system.c: 45:     TMR2_Initialize();
  1726   0013FE  ECDF  F009         	call	_TMR2_Initialize	;wreg free
  1727   001402  0012               	return		;funcret
  1728   001404                     __end_of_SYSTEM_Initialize:
  1729                           	callstack 0
  1730                           
  1731 ;; *************** function _TMR2_Initialize *****************
  1732 ;; Defined at:
  1733 ;;		line 48 in file "mcc_generated_files/timer/src/tmr2.c"
  1734 ;; Parameters:    Size  Location     Type
  1735 ;;		None
  1736 ;; Auto vars:     Size  Location     Type
  1737 ;;		None
  1738 ;; Return value:  Size  Location     Type
  1739 ;;                  1    wreg      void 
  1740 ;; Registers used:
  1741 ;;		wreg, status,2, status,0, cstack
  1742 ;; Tracked objects:
  1743 ;;		On entry : 0/0
  1744 ;;		On exit  : 0/0
  1745 ;;		Unchanged: 0/0
  1746 ;; Data sizes:     COMRAM   BANK0   BANK1   BANK2   BANK3   BANK4   BANK5   BANK6   BANK7   BANK8   BANK9  BANK10  BANK1
      +1  BANK12  BANK13  BANK14  BANK15
  1747 ;;      Params:         0       0       0       0       0       0       0       0       0       0       0       0       
      +0       0       0       0       0
  1748 ;;      Locals:         0       0       0       0       0       0       0       0       0       0       0       0       
      +0       0       0       0       0
  1749 ;;      Temps:          0       0       0       0       0       0       0       0       0       0       0       0       
      +0       0       0       0       0
  1750 ;;      Totals:         0       0       0       0       0       0       0       0       0       0       0       0       
      +0       0       0       0       0
  1751 ;;Total ram usage:        0 bytes
  1752 ;; Hardware stack levels used: 1
  1753 ;; Hardware stack levels required when called: 5
  1754 ;; This function calls:
  1755 ;;		_TMR2_OverflowCallbackRegister
  1756 ;; This function is called by:
  1757 ;;		_SYSTEM_Initialize
  1758 ;; This function uses a non-reentrant model
  1759 ;;
  1760                           
  1761                           	psect	text2
  1762   0013BE                     __ptext2:
  1763                           	callstack 0
  1764   0013BE                     _TMR2_Initialize:
  1765                           	callstack 24
  1766   0013BE                     
  1767                           ;mcc_generated_files/timer/src/tmr2.c: 52:     PR2 = 0x9B;
  1768   0013BE  0E9B               	movlw	155
  1769   0013C0  6ECB               	movwf	203,c	;volatile
  1770   0013C2                     
  1771                           ;mcc_generated_files/timer/src/tmr2.c: 54:     TMR2 = 0x0;
  1772   0013C2  6ACC               	clrf	204,c	;volatile
  1773   0013C4                     
  1774                           ;mcc_generated_files/timer/src/tmr2.c: 57:      PIR1bits.TMR2IF = 0;
  1775   0013C4  929E               	bcf	158,1,c	;volatile
  1776                           
  1777                           ;mcc_generated_files/timer/src/tmr2.c: 59:     T2CON = 0x7E;
  1778   0013C6  0E7E               	movlw	126
  1779   0013C8  6ECA               	movwf	202,c	;volatile
  1780   0013CA                     
  1781                           ;mcc_generated_files/timer/src/tmr2.c: 62:     TMR2_OverflowCallbackRegister(TMR2_Defaul
      +                          tOverflowCallback);
  1782   0013CA  0E00               	movlw	0
  1783   0013CC  6E15               	movwf	TMR2_OverflowCallbackRegister@InterruptHandler^0,c
  1784   0013CE  0E00               	movlw	0
  1785   0013D0  6E16               	movwf	(TMR2_OverflowCallbackRegister@InterruptHandler+1)^0,c
  1786   0013D2  EC09  F00A         	call	_TMR2_OverflowCallbackRegister	;wreg free
  1787   0013D6  0012               	return		;funcret
  1788   0013D8                     __end_of_TMR2_Initialize:
  1789                           	callstack 0
  1790                           
  1791 ;; *************** function _TMR2_OverflowCallbackRegister *****************
  1792 ;; Defined at:
  1793 ;;		line 95 in file "mcc_generated_files/timer/src/tmr2.c"
  1794 ;; Parameters:    Size  Location     Type
  1795 ;;  InterruptHan    2    5[COMRAM] PTR FTN()void 
  1796 ;;		 -> TMR2_DefaultOverflowCallback(1), 
  1797 ;; Auto vars:     Size  Location     Type
  1798 ;;		None
  1799 ;; Return value:  Size  Location     Type
  1800 ;;                  1    wreg      void 
  1801 ;; Registers used:
  1802 ;;		wreg, status,2, status,0
  1803 ;; Tracked objects:
  1804 ;;		On entry : 0/0
  1805 ;;		On exit  : 0/0
  1806 ;;		Unchanged: 0/0
  1807 ;; Data sizes:     COMRAM   BANK0   BANK1   BANK2   BANK3   BANK4   BANK5   BANK6   BANK7   BANK8   BANK9  BANK10  BANK1
      +1  BANK12  BANK13  BANK14  BANK15
  1808 ;;      Params:         2       0       0       0       0       0       0       0       0       0       0       0       
      +0       0       0       0       0
  1809 ;;      Locals:         0       0       0       0       0       0       0       0       0       0       0       0       
      +0       0       0       0       0
  1810 ;;      Temps:          0       0       0       0       0       0       0       0       0       0       0       0       
      +0       0       0       0       0
  1811 ;;      Totals:         2       0       0       0       0       0       0       0       0       0       0       0       
      +0       0       0       0       0
  1812 ;;Total ram usage:        2 bytes
  1813 ;; Hardware stack levels used: 1
  1814 ;; Hardware stack levels required when called: 4
  1815 ;; This function calls:
  1816 ;;		Nothing
  1817 ;; This function is called by:
  1818 ;;		_TMR2_Initialize
  1819 ;; This function uses a non-reentrant model
  1820 ;;
  1821                           
  1822                           	psect	text3
  1823   001412                     __ptext3:
  1824                           	callstack 0
  1825   001412                     _TMR2_OverflowCallbackRegister:
  1826                           	callstack 24
  1827   001412                     
  1828                           ;mcc_generated_files/timer/src/tmr2.c: 96:     TMR2_OverflowCallback = InterruptHandler;
  1829   001412  C015  F001         	movff	TMR2_OverflowCallbackRegister@InterruptHandler,_TMR2_OverflowCallback
  1830   001416  C016  F002         	movff	TMR2_OverflowCallbackRegister@InterruptHandler+1,_TMR2_OverflowCallback+1
  1831   00141A  0012               	return		;funcret
  1832   00141C                     __end_of_TMR2_OverflowCallbackRegister:
  1833                           	callstack 0
  1834                           
  1835 ;; *************** function _PIN_MANAGER_Initialize *****************
  1836 ;; Defined at:
  1837 ;;		line 38 in file "mcc_generated_files/system/src/pins.c"
  1838 ;; Parameters:    Size  Location     Type
  1839 ;;		None
  1840 ;; Auto vars:     Size  Location     Type
  1841 ;;		None
  1842 ;; Return value:  Size  Location     Type
  1843 ;;                  1    wreg      void 
  1844 ;; Registers used:
  1845 ;;		wreg, status,2
  1846 ;; Tracked objects:
  1847 ;;		On entry : 0/0
  1848 ;;		On exit  : 0/0
  1849 ;;		Unchanged: 0/0
  1850 ;; Data sizes:     COMRAM   BANK0   BANK1   BANK2   BANK3   BANK4   BANK5   BANK6   BANK7   BANK8   BANK9  BANK10  BANK1
      +1  BANK12  BANK13  BANK14  BANK15
  1851 ;;      Params:         0       0       0       0       0       0       0       0       0       0       0       0       
      +0       0       0       0       0
  1852 ;;      Locals:         0       0       0       0       0       0       0       0       0       0       0       0       
      +0       0       0       0       0
  1853 ;;      Temps:          0       0       0       0       0       0       0       0       0       0       0       0       
      +0       0       0       0       0
  1854 ;;      Totals:         0       0       0       0       0       0       0       0       0       0       0       0       
      +0       0       0       0       0
  1855 ;;Total ram usage:        0 bytes
  1856 ;; Hardware stack levels used: 1
  1857 ;; Hardware stack levels required when called: 4
  1858 ;; This function calls:
  1859 ;;		Nothing
  1860 ;; This function is called by:
  1861 ;;		_SYSTEM_Initialize
  1862 ;; This function uses a non-reentrant model
  1863 ;;
  1864                           
  1865                           	psect	text4
  1866   00133A                     __ptext4:
  1867                           	callstack 0
  1868   00133A                     _PIN_MANAGER_Initialize:
  1869                           	callstack 25
  1870   00133A                     
  1871                           ;mcc_generated_files/system/src/pins.c: 43:     LATA = 0x0;
  1872   00133A  6A89               	clrf	137,c	;volatile
  1873                           
  1874                           ;mcc_generated_files/system/src/pins.c: 44:     LATB = 0x0;
  1875   00133C  6A8A               	clrf	138,c	;volatile
  1876   00133E                     
  1877                           ;mcc_generated_files/system/src/pins.c: 45:     LATC = 0x18;
  1878   00133E  0E18               	movlw	24
  1879   001340  6E8B               	movwf	139,c	;volatile
  1880   001342                     
  1881                           ;mcc_generated_files/system/src/pins.c: 46:     LATD = 0x0;
  1882   001342  6A8C               	clrf	140,c	;volatile
  1883   001344                     
  1884                           ;mcc_generated_files/system/src/pins.c: 47:     LATE = 0x0;
  1885   001344  6A8D               	clrf	141,c	;volatile
  1886   001346                     
  1887                           ;mcc_generated_files/system/src/pins.c: 55:     TRISA = 0xFF;
  1888   001346  6892               	setf	146,c	;volatile
  1889   001348                     
  1890                           ;mcc_generated_files/system/src/pins.c: 56:     TRISB = 0xFF;
  1891   001348  6893               	setf	147,c	;volatile
  1892                           
  1893                           ;mcc_generated_files/system/src/pins.c: 57:     TRISC = 0xFC;
  1894   00134A  0EFC               	movlw	252
  1895   00134C  6E94               	movwf	148,c	;volatile
  1896                           
  1897                           ;mcc_generated_files/system/src/pins.c: 58:     TRISD = 0xF3;
  1898   00134E  0EF3               	movlw	243
  1899   001350  6E95               	movwf	149,c	;volatile
  1900                           
  1901                           ;mcc_generated_files/system/src/pins.c: 59:     TRISE = 0x7;
  1902   001352  0E07               	movlw	7
  1903   001354  6E96               	movwf	150,c	;volatile
  1904                           
  1905                           ;mcc_generated_files/system/src/pins.c: 64:     ANSELH = 0x1F;
  1906   001356  0E1F               	movlw	31
  1907   001358  6E7F               	movwf	127,c	;volatile
  1908   00135A                     
  1909                           ;mcc_generated_files/system/src/pins.c: 69:     WPUB = 0xFF;
  1910   00135A  687C               	setf	124,c	;volatile
  1911   00135C                     
  1912                           ;mcc_generated_files/system/src/pins.c: 90:     IOCB = 0x0;
  1913   00135C  6A7D               	clrf	125,c	;volatile
  1914   00135E                     
  1915                           ;mcc_generated_files/system/src/pins.c: 94:     INTCONbits.RBIE = 1;
  1916   00135E  86F2               	bsf	242,3,c	;volatile
  1917   001360  0012               	return		;funcret
  1918   001362                     __end_of_PIN_MANAGER_Initialize:
  1919                           	callstack 0
  1920                           
  1921 ;; *************** function _I2C1_Initialize *****************
  1922 ;; Defined at:
  1923 ;;		line 69 in file "mcc_generated_files/i2c_client/src/mssp.c"
  1924 ;; Parameters:    Size  Location     Type
  1925 ;;		None
  1926 ;; Auto vars:     Size  Location     Type
  1927 ;;		None
  1928 ;; Return value:  Size  Location     Type
  1929 ;;                  1    wreg      void 
  1930 ;; Registers used:
  1931 ;;		wreg, status,2, status,0, cstack
  1932 ;; Tracked objects:
  1933 ;;		On entry : 0/0
  1934 ;;		On exit  : 0/0
  1935 ;;		Unchanged: 0/0
  1936 ;; Data sizes:     COMRAM   BANK0   BANK1   BANK2   BANK3   BANK4   BANK5   BANK6   BANK7   BANK8   BANK9  BANK10  BANK1
      +1  BANK12  BANK13  BANK14  BANK15
  1937 ;;      Params:         0       0       0       0       0       0       0       0       0       0       0       0       
      +0       0       0       0       0
  1938 ;;      Locals:         0       0       0       0       0       0       0       0       0       0       0       0       
      +0       0       0       0       0
  1939 ;;      Temps:          0       0       0       0       0       0       0       0       0       0       0       0       
      +0       0       0       0       0
  1940 ;;      Totals:         0       0       0       0       0       0       0       0       0       0       0       0       
      +0       0       0       0       0
  1941 ;;Total ram usage:        0 bytes
  1942 ;; Hardware stack levels used: 1
  1943 ;; Hardware stack levels required when called: 5
  1944 ;; This function calls:
  1945 ;;		_I2C1_CallbackRegister
  1946 ;; This function is called by:
  1947 ;;		_SYSTEM_Initialize
  1948 ;; This function uses a non-reentrant model
  1949 ;;
  1950                           
  1951                           	psect	text5
  1952   001362                     __ptext5:
  1953                           	callstack 0
  1954   001362                     _I2C1_Initialize:
  1955                           	callstack 24
  1956   001362                     
  1957                           ;mcc_generated_files/i2c_client/src/mssp.c: 72:     SSPSTAT = 0xA4;
  1958   001362  0EA4               	movlw	164
  1959   001364  6EC7               	movwf	199,c	;volatile
  1960   001366                     
  1961                           ;mcc_generated_files/i2c_client/src/mssp.c: 74:     SSPCON1 |= 0x6;
  1962   001366  0E06               	movlw	6
  1963   001368  12C6               	iorwf	198,f,c	;volatile
  1964   00136A                     
  1965                           ;mcc_generated_files/i2c_client/src/mssp.c: 76:     SSPCON2 = 0x0;
  1966   00136A  6AC5               	clrf	197,c	;volatile
  1967   00136C                     
  1968                           ;mcc_generated_files/i2c_client/src/mssp.c: 78:     SSPADD = 0x10;
  1969   00136C  0E10               	movlw	16
  1970   00136E  6EC8               	movwf	200,c	;volatile
  1971   001370                     
  1972                           ;mcc_generated_files/i2c_client/src/mssp.c: 80:     SSPMSK = 0xFF;
  1973   001370  6877               	setf	119,c	;volatile
  1974   001372                     
  1975                           ;mcc_generated_files/i2c_client/src/mssp.c: 82:     PIE1bits.SSPIE = 1;
  1976   001372  869D               	bsf	157,3,c	;volatile
  1977   001374                     
  1978                           ;mcc_generated_files/i2c_client/src/mssp.c: 83:     PIE2bits.BCLIE = 1;
  1979   001374  86A0               	bsf	160,3,c	;volatile
  1980   001376                     
  1981                           ;mcc_generated_files/i2c_client/src/mssp.c: 84:     I2C1_CallbackRegister(I2C1_DefaultCa
      +                          llback);
  1982   001376  0E34               	movlw	low _I2C1_DefaultCallback
  1983   001378  6E15               	movwf	I2C1_CallbackRegister@callback^0,c
  1984   00137A  0E14               	movlw	high _I2C1_DefaultCallback
  1985   00137C  6E16               	movwf	(I2C1_CallbackRegister@callback+1)^0,c
  1986   00137E  ECC3  F009         	call	_I2C1_CallbackRegister	;wreg free
  1987   001382                     
  1988                           ;mcc_generated_files/i2c_client/src/mssp.c: 85:     SSPCON1bits.SSPEN = 1;
  1989   001382  8AC6               	bsf	198,5,c	;volatile
  1990   001384  0012               	return		;funcret
  1991   001386                     __end_of_I2C1_Initialize:
  1992                           	callstack 0
  1993                           
  1994 ;; *************** function _I2C1_CallbackRegister *****************
  1995 ;; Defined at:
  1996 ;;		line 134 in file "mcc_generated_files/i2c_client/src/mssp.c"
  1997 ;; Parameters:    Size  Location     Type
  1998 ;;  callback        2    5[COMRAM] PTR FTN(enum E2743,)_Boo
  1999 ;;		 -> I2C_InterruptHandler(1), I2C1_DefaultCallback(1), 
  2000 ;; Auto vars:     Size  Location     Type
  2001 ;;		None
  2002 ;; Return value:  Size  Location     Type
  2003 ;;                  1    wreg      void 
  2004 ;; Registers used:
  2005 ;;		wreg, status,2, status,0
  2006 ;; Tracked objects:
  2007 ;;		On entry : 0/0
  2008 ;;		On exit  : 0/0
  2009 ;;		Unchanged: 0/0
  2010 ;; Data sizes:     COMRAM   BANK0   BANK1   BANK2   BANK3   BANK4   BANK5   BANK6   BANK7   BANK8   BANK9  BANK10  BANK1
      +1  BANK12  BANK13  BANK14  BANK15
  2011 ;;      Params:         2       0       0       0       0       0       0       0       0       0       0       0       
      +0       0       0       0       0
  2012 ;;      Locals:         0       0       0       0       0       0       0       0       0       0       0       0       
      +0       0       0       0       0
  2013 ;;      Temps:          0       0       0       0       0       0       0       0       0       0       0       0       
      +0       0       0       0       0
  2014 ;;      Totals:         2       0       0       0       0       0       0       0       0       0       0       0       
      +0       0       0       0       0
  2015 ;;Total ram usage:        2 bytes
  2016 ;; Hardware stack levels used: 1
  2017 ;; Hardware stack levels required when called: 4
  2018 ;; This function calls:
  2019 ;;		Nothing
  2020 ;; This function is called by:
  2021 ;;		_I2C1_Initialize
  2022 ;;		_main
  2023 ;;		_I2C1_Deinitialize
  2024 ;; This function uses a non-reentrant model
  2025 ;;
  2026                           
  2027                           	psect	text6
  2028   001386                     __ptext6:
  2029                           	callstack 0
  2030   001386                     _I2C1_CallbackRegister:
  2031                           	callstack 24
  2032   001386                     
  2033                           ;mcc_generated_files/i2c_client/src/mssp.c: 134: void I2C1_CallbackRegister(_Bool(*callb
      +                          ack)(i2c_client_transfer_event_t clientEvent));mcc_generated_files/i2c_client/src/mssp.c
      +                          : 135: {;mcc_generated_files/i2c_client/src/mssp.c: 136:     if (callback != ((void*)0))
  2034   001386  5015               	movf	I2C1_CallbackRegister@callback^0,w,c
  2035   001388  1016               	iorwf	(I2C1_CallbackRegister@callback+1)^0,w,c
  2036   00138A  B4D8               	btfsc	status,2,c
  2037   00138C  EFCA  F009         	goto	u431
  2038   001390  EFCC  F009         	goto	u430
  2039   001394                     u431:
  2040   001394  EFD0  F009         	goto	l232
  2041   001398                     u430:
  2042   001398                     
  2043                           ;mcc_generated_files/i2c_client/src/mssp.c: 137:     {;mcc_generated_files/i2c_client/sr
      +                          c/mssp.c: 138:         I2C1_InterruptHandler = callback;
  2044   001398  C015  F003         	movff	I2C1_CallbackRegister@callback,_I2C1_InterruptHandler
  2045   00139C  C016  F004         	movff	I2C1_CallbackRegister@callback+1,_I2C1_InterruptHandler+1
  2046   0013A0                     l232:
  2047   0013A0  0012               	return		;funcret
  2048   0013A2                     __end_of_I2C1_CallbackRegister:
  2049                           	callstack 0
  2050                           
  2051 ;; *************** function _CLOCK_Initialize *****************
  2052 ;; Defined at:
  2053 ;;		line 40 in file "mcc_generated_files/system/src/clock.c"
  2054 ;; Parameters:    Size  Location     Type
  2055 ;;		None
  2056 ;; Auto vars:     Size  Location     Type
  2057 ;;		None
  2058 ;; Return value:  Size  Location     Type
  2059 ;;                  1    wreg      void 
  2060 ;; Registers used:
  2061 ;;		wreg, status,2
  2062 ;; Tracked objects:
  2063 ;;		On entry : 0/0
  2064 ;;		On exit  : 0/0
  2065 ;;		Unchanged: 0/0
  2066 ;; Data sizes:     COMRAM   BANK0   BANK1   BANK2   BANK3   BANK4   BANK5   BANK6   BANK7   BANK8   BANK9  BANK10  BANK1
      +1  BANK12  BANK13  BANK14  BANK15
  2067 ;;      Params:         0       0       0       0       0       0       0       0       0       0       0       0       
      +0       0       0       0       0
  2068 ;;      Locals:         0       0       0       0       0       0       0       0       0       0       0       0       
      +0       0       0       0       0
  2069 ;;      Temps:          0       0       0       0       0       0       0       0       0       0       0       0       
      +0       0       0       0       0
  2070 ;;      Totals:         0       0       0       0       0       0       0       0       0       0       0       0       
      +0       0       0       0       0
  2071 ;;Total ram usage:        0 bytes
  2072 ;; Hardware stack levels used: 1
  2073 ;; Hardware stack levels required when called: 4
  2074 ;; This function calls:
  2075 ;;		Nothing
  2076 ;; This function is called by:
  2077 ;;		_SYSTEM_Initialize
  2078 ;; This function uses a non-reentrant model
  2079 ;;
  2080                           
  2081                           	psect	text7
  2082   00141C                     __ptext7:
  2083                           	callstack 0
  2084   00141C                     _CLOCK_Initialize:
  2085                           	callstack 25
  2086   00141C                     
  2087                           ;mcc_generated_files/system/src/clock.c: 42:     OSCCON = (0 << 0x0)
  2088   00141C  0E60               	movlw	96
  2089   00141E  6ED3               	movwf	211,c	;volatile
  2090   001420                     
  2091                           ;mcc_generated_files/system/src/clock.c: 46:     OSCTUNE = (0 << 0x0)
  2092   001420  6A9B               	clrf	155,c	;volatile
  2093   001422  0012               	return		;funcret
  2094   001424                     __end_of_CLOCK_Initialize:
  2095                           	callstack 0
  2096                           
  2097 ;; *************** function _CCP2_Initialize *****************
  2098 ;; Defined at:
  2099 ;;		line 50 in file "mcc_generated_files/pwm/src/ccp2.c"
  2100 ;; Parameters:    Size  Location     Type
  2101 ;;		None
  2102 ;; Auto vars:     Size  Location     Type
  2103 ;;		None
  2104 ;; Return value:  Size  Location     Type
  2105 ;;                  1    wreg      void 
  2106 ;; Registers used:
  2107 ;;		wreg, status,2
  2108 ;; Tracked objects:
  2109 ;;		On entry : 0/0
  2110 ;;		On exit  : 0/0
  2111 ;;		Unchanged: 0/0
  2112 ;; Data sizes:     COMRAM   BANK0   BANK1   BANK2   BANK3   BANK4   BANK5   BANK6   BANK7   BANK8   BANK9  BANK10  BANK1
      +1  BANK12  BANK13  BANK14  BANK15
  2113 ;;      Params:         0       0       0       0       0       0       0       0       0       0       0       0       
      +0       0       0       0       0
  2114 ;;      Locals:         0       0       0       0       0       0       0       0       0       0       0       0       
      +0       0       0       0       0
  2115 ;;      Temps:          0       0       0       0       0       0       0       0       0       0       0       0       
      +0       0       0       0       0
  2116 ;;      Totals:         0       0       0       0       0       0       0       0       0       0       0       0       
      +0       0       0       0       0
  2117 ;;Total ram usage:        0 bytes
  2118 ;; Hardware stack levels used: 1
  2119 ;; Hardware stack levels required when called: 4
  2120 ;; This function calls:
  2121 ;;		Nothing
  2122 ;; This function is called by:
  2123 ;;		_SYSTEM_Initialize
  2124 ;; This function uses a non-reentrant model
  2125 ;;
  2126                           
  2127                           	psect	text8
  2128   001404                     __ptext8:
  2129                           	callstack 0
  2130   001404                     _CCP2_Initialize:
  2131                           	callstack 25
  2132   001404                     
  2133                           ;mcc_generated_files/pwm/src/ccp2.c: 55:     CCP2CON = 0xC;
  2134   001404  0E0C               	movlw	12
  2135   001406  6EBA               	movwf	186,c	;volatile
  2136   001408                     
  2137                           ;mcc_generated_files/pwm/src/ccp2.c: 58:     CCPR2H = 0x0;
  2138   001408  6ABC               	clrf	188,c	;volatile
  2139                           
  2140                           ;mcc_generated_files/pwm/src/ccp2.c: 61:     CCPR2L = 0x4E;
  2141   00140A  0E4E               	movlw	78
  2142   00140C  6EBB               	movwf	187,c	;volatile
  2143   00140E                     
  2144                           ;mcc_generated_files/pwm/src/ccp2.c: 64:     T3CONbits.T3CCP1 = 0x0 ;
  2145   00140E  96B1               	bcf	177,3,c	;volatile
  2146   001410  0012               	return		;funcret
  2147   001412                     __end_of_CCP2_Initialize:
  2148                           	callstack 0
  2149                           
  2150 ;; *************** function _CCP2_LoadDutyValue *****************
  2151 ;; Defined at:
  2152 ;;		line 67 in file "mcc_generated_files/pwm/src/ccp2.c"
  2153 ;; Parameters:    Size  Location     Type
  2154 ;;  dutyValue       2    5[COMRAM] unsigned short 
  2155 ;; Auto vars:     Size  Location     Type
  2156 ;;		None
  2157 ;; Return value:  Size  Location     Type
  2158 ;;                  1    wreg      void 
  2159 ;; Registers used:
  2160 ;;		wreg, status,2, status,0
  2161 ;; Tracked objects:
  2162 ;;		On entry : 0/0
  2163 ;;		On exit  : 0/0
  2164 ;;		Unchanged: 0/0
  2165 ;; Data sizes:     COMRAM   BANK0   BANK1   BANK2   BANK3   BANK4   BANK5   BANK6   BANK7   BANK8   BANK9  BANK10  BANK1
      +1  BANK12  BANK13  BANK14  BANK15
  2166 ;;      Params:         2       0       0       0       0       0       0       0       0       0       0       0       
      +0       0       0       0       0
  2167 ;;      Locals:         0       0       0       0       0       0       0       0       0       0       0       0       
      +0       0       0       0       0
  2168 ;;      Temps:          2       0       0       0       0       0       0       0       0       0       0       0       
      +0       0       0       0       0
  2169 ;;      Totals:         4       0       0       0       0       0       0       0       0       0       0       0       
      +0       0       0       0       0
  2170 ;;Total ram usage:        4 bytes
  2171 ;; Hardware stack levels used: 1
  2172 ;; Hardware stack levels required when called: 4
  2173 ;; This function calls:
  2174 ;;		Nothing
  2175 ;; This function is called by:
  2176 ;;		_main
  2177 ;; This function uses a non-reentrant model
  2178 ;;
  2179                           
  2180                           	psect	text9
  2181   00130A                     __ptext9:
  2182                           	callstack 0
  2183   00130A                     _CCP2_LoadDutyValue:
  2184                           	callstack 26
  2185   00130A                     
  2186                           ;mcc_generated_files/pwm/src/ccp2.c: 67: void CCP2_LoadDutyValue(uint16_t dutyValue);mcc
      +                          _generated_files/pwm/src/ccp2.c: 68: {;mcc_generated_files/pwm/src/ccp2.c: 70:     CCPR2
      +                          L = ((dutyValue & 0x03FC)>>2);
  2187   00130A  C015  F017         	movff	CCP2_LoadDutyValue@dutyValue,??_CCP2_LoadDutyValue
  2188   00130E  C016  F018         	movff	CCP2_LoadDutyValue@dutyValue+1,??_CCP2_LoadDutyValue+1
  2189   001312  90D8               	bcf	status,0,c
  2190   001314  3218               	rrcf	(??_CCP2_LoadDutyValue+1)^0,f,c
  2191   001316  3217               	rrcf	??_CCP2_LoadDutyValue^0,f,c
  2192   001318  90D8               	bcf	status,0,c
  2193   00131A  3218               	rrcf	(??_CCP2_LoadDutyValue+1)^0,f,c
  2194   00131C  3217               	rrcf	??_CCP2_LoadDutyValue^0,f,c
  2195   00131E  5017               	movf	??_CCP2_LoadDutyValue^0,w,c
  2196   001320  6EBB               	movwf	187,c	;volatile
  2197                           
  2198                           ;mcc_generated_files/pwm/src/ccp2.c: 73:     CCP2CON = ((uint8_t)(CCP2CON & 0xCF) | ((ui
      +                          nt8_t)((dutyValue & 0x0003)<<4)));
  2199   001322  C015  F017         	movff	CCP2_LoadDutyValue@dutyValue,??_CCP2_LoadDutyValue
  2200   001326  0E03               	movlw	3
  2201   001328  1617               	andwf	??_CCP2_LoadDutyValue^0,f,c
  2202   00132A  3A17               	swapf	??_CCP2_LoadDutyValue^0,f,c
  2203   00132C  0EF0               	movlw	240
  2204   00132E  1617               	andwf	??_CCP2_LoadDutyValue^0,f,c
  2205   001330  50BA               	movf	186,w,c	;volatile
  2206   001332  0BCF               	andlw	207
  2207   001334  1017               	iorwf	??_CCP2_LoadDutyValue^0,w,c
  2208   001336  6EBA               	movwf	186,c	;volatile
  2209   001338  0012               	return		;funcret
  2210   00133A                     __end_of_CCP2_LoadDutyValue:
  2211                           	callstack 0
  2212                           
  2213 ;; *************** function _INTERRUPT_InterruptManager *****************
  2214 ;; Defined at:
  2215 ;;		line 80 in file "mcc_generated_files/system/src/interrupt.c"
  2216 ;; Parameters:    Size  Location     Type
  2217 ;;		None
  2218 ;; Auto vars:     Size  Location     Type
  2219 ;;		None
  2220 ;; Return value:  Size  Location     Type
  2221 ;;                  1    wreg      void 
  2222 ;; Registers used:
  2223 ;;		wreg, status,2, status,0, pcl, pclath, pclatu, tosl, cstack
  2224 ;; Tracked objects:
  2225 ;;		On entry : 0/0
  2226 ;;		On exit  : 0/0
  2227 ;;		Unchanged: 0/0
  2228 ;; Data sizes:     COMRAM   BANK0   BANK1   BANK2   BANK3   BANK4   BANK5   BANK6   BANK7   BANK8   BANK9  BANK10  BANK1
      +1  BANK12  BANK13  BANK14  BANK15
  2229 ;;      Params:         0       0       0       0       0       0       0       0       0       0       0       0       
      +0       0       0       0       0
  2230 ;;      Locals:         0       0       0       0       0       0       0       0       0       0       0       0       
      +0       0       0       0       0
  2231 ;;      Temps:          2       0       0       0       0       0       0       0       0       0       0       0       
      +0       0       0       0       0
  2232 ;;      Totals:         2       0       0       0       0       0       0       0       0       0       0       0       
      +0       0       0       0       0
  2233 ;;Total ram usage:        2 bytes
  2234 ;; Hardware stack levels used: 1
  2235 ;; Hardware stack levels required when called: 3
  2236 ;; This function calls:
  2237 ;;		_I2C1_ERROR_ISR
  2238 ;;		_I2C1_ISR
  2239 ;; This function is called by:
  2240 ;;		Interrupt level 2
  2241 ;; This function uses a non-reentrant model
  2242 ;;
  2243                           
  2244                           	psect	intcode
  2245   000008                     __pintcode:
  2246                           	callstack 0
  2247   000008                     _INTERRUPT_InterruptManager:
  2248                           	callstack 24
  2249                           
  2250                           ;incstack = 0
  2251   000008  821B               	bsf	int$flags,1,c	;set compiler interrupt flag (level 2)
  2252   00000A  CFFA F013          	movff	pclath,??_INTERRUPT_InterruptManager
  2253   00000E  CFFB F014          	movff	pclatu,??_INTERRUPT_InterruptManager+1
  2254   000012                     
  2255                           ;mcc_generated_files/system/src/interrupt.c: 83:     if(INTCONbits.PEIE == 1)
  2256   000012  ACF2               	btfss	242,6,c	;volatile
  2257   000014  EF0E  F000         	goto	i2u25_41
  2258   000018  EF10  F000         	goto	i2u25_40
  2259   00001C                     i2u25_41:
  2260   00001C  EF30  F000         	goto	i2l68
  2261   000020                     i2u25_40:
  2262   000020                     
  2263                           ;mcc_generated_files/system/src/interrupt.c: 84:     {;mcc_generated_files/system/src/in
      +                          terrupt.c: 85:         if(PIE2bits.BCLIE == 1 && PIR2bits.BCLIF == 1)
  2264   000020  A6A0               	btfss	160,3,c	;volatile
  2265   000022  EF15  F000         	goto	i2u26_41
  2266   000026  EF17  F000         	goto	i2u26_40
  2267   00002A                     i2u26_41:
  2268   00002A  EF20  F000         	goto	i2l1214
  2269   00002E                     i2u26_40:
  2270   00002E  A6A1               	btfss	161,3,c	;volatile
  2271   000030  EF1C  F000         	goto	i2u27_41
  2272   000034  EF1E  F000         	goto	i2u27_40
  2273   000038                     i2u27_41:
  2274   000038  EF20  F000         	goto	i2l1214
  2275   00003C                     i2u27_40:
  2276   00003C                     
  2277                           ;mcc_generated_files/system/src/interrupt.c: 86:         {;mcc_generated_files/system/sr
      +                          c/interrupt.c: 87:             I2C1_ERROR_ISR();
  2278   00003C  EC15  F00A         	call	_I2C1_ERROR_ISR	;wreg free
  2279   000040                     i2l1214:
  2280                           
  2281                           ;mcc_generated_files/system/src/interrupt.c: 89:         if(PIE1bits.SSPIE == 1 && PIR1b
      +                          its.SSPIF == 1)
  2282   000040  A69D               	btfss	157,3,c	;volatile
  2283   000042  EF25  F000         	goto	i2u28_41
  2284   000046  EF27  F000         	goto	i2u28_40
  2285   00004A                     i2u28_41:
  2286   00004A  EF30  F000         	goto	i2l68
  2287   00004E                     i2u28_40:
  2288   00004E  A69E               	btfss	158,3,c	;volatile
  2289   000050  EF2C  F000         	goto	i2u29_41
  2290   000054  EF2E  F000         	goto	i2u29_40
  2291   000058                     i2u29_41:
  2292   000058  EF30  F000         	goto	i2l68
  2293   00005C                     i2u29_40:
  2294   00005C                     
  2295                           ;mcc_generated_files/system/src/interrupt.c: 90:         {;mcc_generated_files/system/sr
      +                          c/interrupt.c: 91:             I2C1_ISR();
  2296   00005C  EC12  F00A         	call	_I2C1_ISR	;wreg free
  2297   000060                     i2l68:
  2298   000060  C014  FFFB         	movff	??_INTERRUPT_InterruptManager+1,pclatu
  2299   000064  C013  FFFA         	movff	??_INTERRUPT_InterruptManager,pclath
  2300   000068  921B               	bcf	int$flags,1,c	;clear compiler interrupt flag (level 2)
  2301   00006A  0011               	retfie		f
  2302   00006C                     __end_of_INTERRUPT_InterruptManager:
  2303                           	callstack 0
  2304                           
  2305 ;; *************** function _I2C1_ISR *****************
  2306 ;; Defined at:
  2307 ;;		line 142 in file "mcc_generated_files/i2c_client/src/mssp.c"
  2308 ;; Parameters:    Size  Location     Type
  2309 ;;		None
  2310 ;; Auto vars:     Size  Location     Type
  2311 ;;		None
  2312 ;; Return value:  Size  Location     Type
  2313 ;;                  1    wreg      void 
  2314 ;; Registers used:
  2315 ;;		wreg, status,2, status,0, pcl, pclath, pclatu, tosl, cstack
  2316 ;; Tracked objects:
  2317 ;;		On entry : 0/0
  2318 ;;		On exit  : 0/0
  2319 ;;		Unchanged: 0/0
  2320 ;; Data sizes:     COMRAM   BANK0   BANK1   BANK2   BANK3   BANK4   BANK5   BANK6   BANK7   BANK8   BANK9  BANK10  BANK1
      +1  BANK12  BANK13  BANK14  BANK15
  2321 ;;      Params:         0       0       0       0       0       0       0       0       0       0       0       0       
      +0       0       0       0       0
  2322 ;;      Locals:         0       0       0       0       0       0       0       0       0       0       0       0       
      +0       0       0       0       0
  2323 ;;      Temps:          0       0       0       0       0       0       0       0       0       0       0       0       
      +0       0       0       0       0
  2324 ;;      Totals:         0       0       0       0       0       0       0       0       0       0       0       0       
      +0       0       0       0       0
  2325 ;;Total ram usage:        0 bytes
  2326 ;; Hardware stack levels used: 1
  2327 ;; Hardware stack levels required when called: 2
  2328 ;; This function calls:
  2329 ;;		_I2C1_EventHandler
  2330 ;; This function is called by:
  2331 ;;		_INTERRUPT_InterruptManager
  2332 ;; This function uses a non-reentrant model
  2333 ;;
  2334                           
  2335                           	psect	text11
  2336   001424                     __ptext11:
  2337                           	callstack 0
  2338   001424                     _I2C1_ISR:
  2339                           	callstack 24
  2340   001424                     
  2341                           ;mcc_generated_files/i2c_client/src/mssp.c: 144:     I2C1_EventHandler();
  2342   001424  EC0A  F008         	call	_I2C1_EventHandler	;wreg free
  2343   001428  0012               	return		;funcret
  2344   00142A                     __end_of_I2C1_ISR:
  2345                           	callstack 0
  2346                           
  2347 ;; *************** function _I2C1_EventHandler *****************
  2348 ;; Defined at:
  2349 ;;		line 155 in file "mcc_generated_files/i2c_client/src/mssp.c"
  2350 ;; Parameters:    Size  Location     Type
  2351 ;;		None
  2352 ;; Auto vars:     Size  Location     Type
  2353 ;;		None
  2354 ;; Return value:  Size  Location     Type
  2355 ;;                  1    wreg      void 
  2356 ;; Registers used:
  2357 ;;		wreg, status,2, status,0, pcl, pclath, pclatu, tosl, cstack
  2358 ;; Tracked objects:
  2359 ;;		On entry : 0/0
  2360 ;;		On exit  : 0/0
  2361 ;;		Unchanged: 0/0
  2362 ;; Data sizes:     COMRAM   BANK0   BANK1   BANK2   BANK3   BANK4   BANK5   BANK6   BANK7   BANK8   BANK9  BANK10  BANK1
      +1  BANK12  BANK13  BANK14  BANK15
  2363 ;;      Params:         0       0       0       0       0       0       0       0       0       0       0       0       
      +0       0       0       0       0
  2364 ;;      Locals:         0       0       0       0       0       0       0       0       0       0       0       0       
      +0       0       0       0       0
  2365 ;;      Temps:          2       0       0       0       0       0       0       0       0       0       0       0       
      +0       0       0       0       0
  2366 ;;      Totals:         2       0       0       0       0       0       0       0       0       0       0       0       
      +0       0       0       0       0
  2367 ;;Total ram usage:        2 bytes
  2368 ;; Hardware stack levels used: 1
  2369 ;; Hardware stack levels required when called: 1
  2370 ;; This function calls:
  2371 ;;		NULL
  2372 ;;		_I2C1_DefaultCallback
  2373 ;;		_I2C1_ReadByte
  2374 ;;		_I2C_InterruptHandler
  2375 ;; This function is called by:
  2376 ;;		_I2C1_ISR
  2377 ;; This function uses a non-reentrant model
  2378 ;;
  2379                           
  2380                           	psect	text12
  2381   001014                     __ptext12:
  2382                           	callstack 0
  2383   001014                     _I2C1_EventHandler:
  2384                           	callstack 24
  2385   001014                     
  2386                           ;mcc_generated_files/i2c_client/src/mssp.c: 157:     PIR1bits.SSPIF = 0;
  2387   001014  969E               	bcf	158,3,c	;volatile
  2388                           
  2389                           ;mcc_generated_files/i2c_client/src/mssp.c: 158:     if (SSPSTATbits.P)
  2390   001016  A8C7               	btfss	199,4,c	;volatile
  2391   001018  EF10  F008         	goto	i2u3_41
  2392   00101C  EF12  F008         	goto	i2u3_40
  2393   001020                     i2u3_41:
  2394   001020  EF21  F008         	goto	i2l241
  2395   001024                     i2u3_40:
  2396   001024                     
  2397                           ;mcc_generated_files/i2c_client/src/mssp.c: 159:     {;mcc_generated_files/i2c_client/sr
      +                          c/mssp.c: 161:         I2C1_InterruptHandler(I2C_CLIENT_TRANSFER_EVENT_STOP_BIT_RECEIVED
      +                          );
  2398   001024  D802               	call	i2u4_48
  2399   001026  EF1F  F008         	goto	i2u4_49
  2400   00102A                     i2u4_48:
  2401   00102A  0005               	push	
  2402   00102C  6EFA               	movwf	pclath,c
  2403   00102E  5003               	movf	_I2C1_InterruptHandler^0,w,c
  2404   001030  6EFD               	movwf	tosl,c
  2405   001032  5004               	movf	(_I2C1_InterruptHandler+1)^0,w,c
  2406   001034  6EFE               	movwf	tosh,c
  2407   001036  6AFF               	clrf	tosu,c
  2408   001038  50FA               	movf	pclath,w,c
  2409   00103A  0E04               	movlw	4
  2410   00103C  0012               	return		;indir
  2411   00103E                     i2u4_49:
  2412                           
  2413                           ;mcc_generated_files/i2c_client/src/mssp.c: 162:     }
  2414   00103E  EFD5  F008         	goto	i2l242
  2415   001042                     i2l241:
  2416   001042  BAC7               	btfsc	199,5,c	;volatile
  2417   001044  EF26  F008         	goto	i2u5_41
  2418   001048  EF28  F008         	goto	i2u5_40
  2419   00104C                     i2u5_41:
  2420   00104C  EF85  F008         	goto	i2l243
  2421   001050                     i2u5_40:
  2422   001050                     
  2423                           ;mcc_generated_files/i2c_client/src/mssp.c: 164:     {;mcc_generated_files/i2c_client/sr
      +                          c/mssp.c: 166:         i2c1Addr = I2C1_ReadByte();
  2424   001050  EC18  F00A         	call	_I2C1_ReadByte
  2425   001054  6E11               	movwf	??_I2C1_EventHandler^0,c
  2426   001056  5011               	movf	??_I2C1_EventHandler^0,w,c
  2427   001058  6E05               	movwf	_i2c1Addr^0,c	;volatile
  2428   00105A  6A06               	clrf	(_i2c1Addr+1)^0,c	;volatile
  2429   00105C                     
  2430                           ;mcc_generated_files/i2c_client/src/mssp.c: 167:         if(i2c1Addr != SSPADD){
  2431   00105C  50C8               	movf	200,w,c	;volatile
  2432   00105E  6E11               	movwf	??_I2C1_EventHandler^0,c
  2433   001060  6A12               	clrf	(??_I2C1_EventHandler+1)^0,c
  2434   001062  5005               	movf	_i2c1Addr^0,w,c	;volatile
  2435   001064  1811               	xorwf	??_I2C1_EventHandler^0,w,c
  2436   001066  E109               	bnz	i2u6_40
  2437   001068  5006               	movf	(_i2c1Addr+1)^0,w,c	;volatile
  2438   00106A  1812               	xorwf	(??_I2C1_EventHandler+1)^0,w,c
  2439   00106C  B4D8               	btfsc	status,2,c
  2440   00106E  EF3B  F008         	goto	i2u6_41
  2441   001072  EF3D  F008         	goto	i2u6_40
  2442   001076                     i2u6_41:
  2443   001076  EF42  F008         	goto	i2l244
  2444   00107A                     i2u6_40:
  2445   00107A                     
  2446                           ;mcc_generated_files/i2c_client/src/mssp.c: 169:             SSPCON2bits.ACKDT = 1;
  2447   00107A  8AC5               	bsf	197,5,c	;volatile
  2448                           
  2449                           ;mcc_generated_files/i2c_client/src/mssp.c: 170:             SSPCON2bits.ACKEN = 1;
  2450   00107C  88C5               	bsf	197,4,c	;volatile
  2451                           
  2452                           ;mcc_generated_files/i2c_client/src/mssp.c: 171:             SSPCON1bits.CKP = 1;
  2453   00107E  88C6               	bsf	198,4,c	;volatile
  2454                           
  2455                           ;mcc_generated_files/i2c_client/src/mssp.c: 172:             return;
  2456   001080  EFD6  F008         	goto	i2l245
  2457   001084                     i2l244:
  2458                           
  2459                           ;mcc_generated_files/i2c_client/src/mssp.c: 175:         i2c1ErrorState = I2C_CLIENT_ERR
      +                          OR_NONE;
  2460   001084  6A0F               	clrf	_i2c1ErrorState^0,c	;volatile
  2461   001086                     
  2462                           ;mcc_generated_files/i2c_client/src/mssp.c: 177:         if (I2C1_InterruptHandler(I2C_C
      +                          LIENT_TRANSFER_EVENT_ADDR_MATCH) == 1)
  2463   001086  D802               	call	i2u7_48
  2464   001088  EF50  F008         	goto	i2u7_49
  2465   00108C                     i2u7_48:
  2466   00108C  0005               	push	
  2467   00108E  6EFA               	movwf	pclath,c
  2468   001090  5003               	movf	_I2C1_InterruptHandler^0,w,c
  2469   001092  6EFD               	movwf	tosl,c
  2470   001094  5004               	movf	(_I2C1_InterruptHandler+1)^0,w,c
  2471   001096  6EFE               	movwf	tosh,c
  2472   001098  6AFF               	clrf	tosu,c
  2473   00109A  50FA               	movf	pclath,w,c
  2474   00109C  0E01               	movlw	1
  2475   00109E  0012               	return		;indir
  2476   0010A0                     i2u7_49:
  2477   0010A0  06E8               	decf	wreg,f,c
  2478   0010A2  A4D8               	btfss	status,2,c
  2479   0010A4  EF56  F008         	goto	i2u8_41
  2480   0010A8  EF58  F008         	goto	i2u8_40
  2481   0010AC                     i2u8_41:
  2482   0010AC  EF81  F008         	goto	i2l246
  2483   0010B0                     i2u8_40:
  2484   0010B0                     
  2485                           ;mcc_generated_files/i2c_client/src/mssp.c: 178:         {;mcc_generated_files/i2c_clien
      +                          t/src/mssp.c: 180:             if (SSPSTATbits.R_nW)
  2486   0010B0  A4C7               	btfss	199,2,c	;volatile
  2487   0010B2  EF5D  F008         	goto	i2u9_41
  2488   0010B6  EF5F  F008         	goto	i2u9_40
  2489   0010BA                     i2u9_41:
  2490   0010BA  EF7D  F008         	goto	i2l247
  2491   0010BE                     i2u9_40:
  2492   0010BE                     
  2493                           ;mcc_generated_files/i2c_client/src/mssp.c: 181:             {;mcc_generated_files/i2c_c
      +                          lient/src/mssp.c: 182:                 if (!SSPSTATbits.BF)
  2494   0010BE  B0C7               	btfsc	199,0,c	;volatile
  2495   0010C0  EF64  F008         	goto	i2u10_41
  2496   0010C4  EF66  F008         	goto	i2u10_40
  2497   0010C8                     i2u10_41:
  2498   0010C8  EF7D  F008         	goto	i2l247
  2499   0010CC                     i2u10_40:
  2500   0010CC                     
  2501                           ;mcc_generated_files/i2c_client/src/mssp.c: 183:                 {;mcc_generated_files/i
      +                          2c_client/src/mssp.c: 185:                     if (I2C1_InterruptHandler(I2C_CLIENT_TRAN
      +                          SFER_EVENT_TX_READY) == 0)
  2502   0010CC  D802               	call	i2u11_48
  2503   0010CE  EF73  F008         	goto	i2u11_49
  2504   0010D2                     i2u11_48:
  2505   0010D2  0005               	push	
  2506   0010D4  6EFA               	movwf	pclath,c
  2507   0010D6  5003               	movf	_I2C1_InterruptHandler^0,w,c
  2508   0010D8  6EFD               	movwf	tosl,c
  2509   0010DA  5004               	movf	(_I2C1_InterruptHandler+1)^0,w,c
  2510   0010DC  6EFE               	movwf	tosh,c
  2511   0010DE  6AFF               	clrf	tosu,c
  2512   0010E0  50FA               	movf	pclath,w,c
  2513   0010E2  0E03               	movlw	3
  2514   0010E4  0012               	return		;indir
  2515   0010E6                     i2u11_49:
  2516   0010E6  0900               	iorlw	0
  2517   0010E8  A4D8               	btfss	status,2,c
  2518   0010EA  EF79  F008         	goto	i2u12_41
  2519   0010EE  EF7B  F008         	goto	i2u12_40
  2520   0010F2                     i2u12_41:
  2521   0010F2  EF7D  F008         	goto	i2l247
  2522   0010F6                     i2u12_40:
  2523   0010F6                     
  2524                           ;mcc_generated_files/i2c_client/src/mssp.c: 186:                     {;mcc_generated_fil
      +                          es/i2c_client/src/mssp.c: 188:                         SSPCON2bits.ACKDT = 1;
  2525   0010F6  8AC5               	bsf	197,5,c	;volatile
  2526                           
  2527                           ;mcc_generated_files/i2c_client/src/mssp.c: 189:                         SSPCON2bits.ACK
      +                          EN = 1;
  2528   0010F8  88C5               	bsf	197,4,c	;volatile
  2529   0010FA                     i2l247:
  2530                           
  2531                           ;mcc_generated_files/i2c_client/src/mssp.c: 195:             SSPCON2bits.ACKDT = 0;
  2532   0010FA  9AC5               	bcf	197,5,c	;volatile
  2533                           
  2534                           ;mcc_generated_files/i2c_client/src/mssp.c: 196:             SSPCON2bits.ACKEN = 1;
  2535   0010FC  88C5               	bsf	197,4,c	;volatile
  2536                           
  2537                           ;mcc_generated_files/i2c_client/src/mssp.c: 197:         }
  2538   0010FE  EFD5  F008         	goto	i2l242
  2539   001102                     i2l246:
  2540                           
  2541                           ;mcc_generated_files/i2c_client/src/mssp.c: 199:         {;mcc_generated_files/i2c_clien
      +                          t/src/mssp.c: 201:             SSPCON2bits.ACKDT = 1;
  2542   001102  8AC5               	bsf	197,5,c	;volatile
  2543                           
  2544                           ;mcc_generated_files/i2c_client/src/mssp.c: 202:             SSPCON2bits.ACKEN = 1;
  2545   001104  88C5               	bsf	197,4,c	;volatile
  2546   001106  EFD5  F008         	goto	i2l242
  2547   00110A                     i2l243:
  2548                           
  2549                           ;mcc_generated_files/i2c_client/src/mssp.c: 206:     {;mcc_generated_files/i2c_client/sr
      +                          c/mssp.c: 208:         if (SSPSTATbits.R_nW)
  2550   00110A  A4C7               	btfss	199,2,c	;volatile
  2551   00110C  EF8A  F008         	goto	i2u13_41
  2552   001110  EF8C  F008         	goto	i2u13_40
  2553   001114                     i2u13_41:
  2554   001114  EFB3  F008         	goto	i2l252
  2555   001118                     i2u13_40:
  2556   001118                     
  2557                           ;mcc_generated_files/i2c_client/src/mssp.c: 209:         {;mcc_generated_files/i2c_clien
      +                          t/src/mssp.c: 210:             if ((!SSPSTATbits.BF) && (!SSPCON2bits.ACKDT))
  2558   001118  B0C7               	btfsc	199,0,c	;volatile
  2559   00111A  EF91  F008         	goto	i2u14_41
  2560   00111E  EF93  F008         	goto	i2u14_40
  2561   001122                     i2u14_41:
  2562   001122  EFD5  F008         	goto	i2l242
  2563   001126                     i2u14_40:
  2564   001126  BAC5               	btfsc	197,5,c	;volatile
  2565   001128  EF98  F008         	goto	i2u15_41
  2566   00112C  EF9A  F008         	goto	i2u15_40
  2567   001130                     i2u15_41:
  2568   001130  EFD5  F008         	goto	i2l242
  2569   001134                     i2u15_40:
  2570   001134                     
  2571                           ;mcc_generated_files/i2c_client/src/mssp.c: 211:             {;mcc_generated_files/i2c_c
      +                          lient/src/mssp.c: 213:                 if (I2C1_InterruptHandler(I2C_CLIENT_TRANSFER_EVE
      +                          NT_TX_READY) == 0)
  2572   001134  D802               	call	i2u16_48
  2573   001136  EFA7  F008         	goto	i2u16_49
  2574   00113A                     i2u16_48:
  2575   00113A  0005               	push	
  2576   00113C  6EFA               	movwf	pclath,c
  2577   00113E  5003               	movf	_I2C1_InterruptHandler^0,w,c
  2578   001140  6EFD               	movwf	tosl,c
  2579   001142  5004               	movf	(_I2C1_InterruptHandler+1)^0,w,c
  2580   001144  6EFE               	movwf	tosh,c
  2581   001146  6AFF               	clrf	tosu,c
  2582   001148  50FA               	movf	pclath,w,c
  2583   00114A  0E03               	movlw	3
  2584   00114C  0012               	return		;indir
  2585   00114E                     i2u16_49:
  2586   00114E  0900               	iorlw	0
  2587   001150  A4D8               	btfss	status,2,c
  2588   001152  EFAD  F008         	goto	i2u17_41
  2589   001156  EFAF  F008         	goto	i2u17_40
  2590   00115A                     i2u17_41:
  2591   00115A  EFD5  F008         	goto	i2l242
  2592   00115E                     i2u17_40:
  2593   00115E                     
  2594                           ;mcc_generated_files/i2c_client/src/mssp.c: 214:                 {;mcc_generated_files/i
      +                          2c_client/src/mssp.c: 216:                     SSPCON2bits.ACKDT = 1;
  2595   00115E  8AC5               	bsf	197,5,c	;volatile
  2596                           
  2597                           ;mcc_generated_files/i2c_client/src/mssp.c: 217:                     SSPCON2bits.ACKEN =
      +                           1;
  2598   001160  88C5               	bsf	197,4,c	;volatile
  2599   001162  EFD5  F008         	goto	i2l242
  2600   001166                     i2l252:
  2601                           
  2602                           ;mcc_generated_files/i2c_client/src/mssp.c: 222:         {;mcc_generated_files/i2c_clien
      +                          t/src/mssp.c: 223:             if (SSPSTATbits.BF)
  2603   001166  A0C7               	btfss	199,0,c	;volatile
  2604   001168  EFB8  F008         	goto	i2u18_41
  2605   00116C  EFBA  F008         	goto	i2u18_40
  2606   001170                     i2u18_41:
  2607   001170  EFD5  F008         	goto	i2l242
  2608   001174                     i2u18_40:
  2609   001174                     
  2610                           ;mcc_generated_files/i2c_client/src/mssp.c: 224:             {;mcc_generated_files/i2c_c
      +                          lient/src/mssp.c: 226:                 if (I2C1_InterruptHandler(I2C_CLIENT_TRANSFER_EVE
      +                          NT_RX_READY) == 1)
  2611   001174  D802               	call	i2u19_48
  2612   001176  EFC7  F008         	goto	i2u19_49
  2613   00117A                     i2u19_48:
  2614   00117A  0005               	push	
  2615   00117C  6EFA               	movwf	pclath,c
  2616   00117E  5003               	movf	_I2C1_InterruptHandler^0,w,c
  2617   001180  6EFD               	movwf	tosl,c
  2618   001182  5004               	movf	(_I2C1_InterruptHandler+1)^0,w,c
  2619   001184  6EFE               	movwf	tosh,c
  2620   001186  6AFF               	clrf	tosu,c
  2621   001188  50FA               	movf	pclath,w,c
  2622   00118A  0E02               	movlw	2
  2623   00118C  0012               	return		;indir
  2624   00118E                     i2u19_49:
  2625   00118E  06E8               	decf	wreg,f,c
  2626   001190  A4D8               	btfss	status,2,c
  2627   001192  EFCD  F008         	goto	i2u20_41
  2628   001196  EFCF  F008         	goto	i2u20_40
  2629   00119A                     i2u20_41:
  2630   00119A  EFD3  F008         	goto	i2l257
  2631   00119E                     i2u20_40:
  2632   00119E                     
  2633                           ;mcc_generated_files/i2c_client/src/mssp.c: 227:                 {;mcc_generated_files/i
      +                          2c_client/src/mssp.c: 229:                     SSPCON2bits.ACKDT = 0;
  2634   00119E  9AC5               	bcf	197,5,c	;volatile
  2635                           
  2636                           ;mcc_generated_files/i2c_client/src/mssp.c: 230:                     SSPCON2bits.ACKEN =
      +                           1;
  2637   0011A0  88C5               	bsf	197,4,c	;volatile
  2638                           
  2639                           ;mcc_generated_files/i2c_client/src/mssp.c: 231:                 }
  2640   0011A2  EFD5  F008         	goto	i2l242
  2641   0011A6                     i2l257:
  2642                           
  2643                           ;mcc_generated_files/i2c_client/src/mssp.c: 233:                 {;mcc_generated_files/i
      +                          2c_client/src/mssp.c: 235:                     SSPCON2bits.ACKDT = 1;
  2644   0011A6  8AC5               	bsf	197,5,c	;volatile
  2645                           
  2646                           ;mcc_generated_files/i2c_client/src/mssp.c: 236:                     SSPCON2bits.ACKEN =
      +                           1;
  2647   0011A8  88C5               	bsf	197,4,c	;volatile
  2648   0011AA                     i2l242:
  2649                           
  2650                           ;mcc_generated_files/i2c_client/src/mssp.c: 243:     SSPCON1bits.CKP = 1;
  2651   0011AA  88C6               	bsf	198,4,c	;volatile
  2652   0011AC                     i2l245:
  2653   0011AC  0012               	return		;funcret
  2654   0011AE                     __end_of_I2C1_EventHandler:
  2655                           	callstack 0
  2656                           
  2657 ;; *************** function _I2C1_ReadByte *****************
  2658 ;; Defined at:
  2659 ;;		line 106 in file "mcc_generated_files/i2c_client/src/mssp.c"
  2660 ;; Parameters:    Size  Location     Type
  2661 ;;		None
  2662 ;; Auto vars:     Size  Location     Type
  2663 ;;		None
  2664 ;; Return value:  Size  Location     Type
  2665 ;;                  1    wreg      unsigned char 
  2666 ;; Registers used:
  2667 ;;		wreg, status,2
  2668 ;; Tracked objects:
  2669 ;;		On entry : 0/0
  2670 ;;		On exit  : 0/0
  2671 ;;		Unchanged: 0/0
  2672 ;; Data sizes:     COMRAM   BANK0   BANK1   BANK2   BANK3   BANK4   BANK5   BANK6   BANK7   BANK8   BANK9  BANK10  BANK1
      +1  BANK12  BANK13  BANK14  BANK15
  2673 ;;      Params:         0       0       0       0       0       0       0       0       0       0       0       0       
      +0       0       0       0       0
  2674 ;;      Locals:         0       0       0       0       0       0       0       0       0       0       0       0       
      +0       0       0       0       0
  2675 ;;      Temps:          0       0       0       0       0       0       0       0       0       0       0       0       
      +0       0       0       0       0
  2676 ;;      Totals:         0       0       0       0       0       0       0       0       0       0       0       0       
      +0       0       0       0       0
  2677 ;;Total ram usage:        0 bytes
  2678 ;; Hardware stack levels used: 1
  2679 ;; This function calls:
  2680 ;;		Nothing
  2681 ;; This function is called by:
  2682 ;;		_I2C1_EventHandler
  2683 ;; This function uses a non-reentrant model
  2684 ;;
  2685                           
  2686                           	psect	text13
  2687   001430                     __ptext13:
  2688                           	callstack 0
  2689   001430                     _I2C1_ReadByte:
  2690                           	callstack 24
  2691   001430                     
  2692                           ;mcc_generated_files/i2c_client/src/mssp.c: 108:     return SSPBUF;
  2693   001430  50C9               	movf	201,w,c	;volatile
  2694   001432  0012               	return		;funcret
  2695   001434                     __end_of_I2C1_ReadByte:
  2696                           	callstack 0
  2697                           
  2698 ;; *************** function _I2C1_ERROR_ISR *****************
  2699 ;; Defined at:
  2700 ;;		line 147 in file "mcc_generated_files/i2c_client/src/mssp.c"
  2701 ;; Parameters:    Size  Location     Type
  2702 ;;		None
  2703 ;; Auto vars:     Size  Location     Type
  2704 ;;		None
  2705 ;; Return value:  Size  Location     Type
  2706 ;;                  1    wreg      void 
  2707 ;; Registers used:
  2708 ;;		wreg, status,2, status,0, pcl, pclath, pclatu, tosl, cstack
  2709 ;; Tracked objects:
  2710 ;;		On entry : 0/0
  2711 ;;		On exit  : 0/0
  2712 ;;		Unchanged: 0/0
  2713 ;; Data sizes:     COMRAM   BANK0   BANK1   BANK2   BANK3   BANK4   BANK5   BANK6   BANK7   BANK8   BANK9  BANK10  BANK1
      +1  BANK12  BANK13  BANK14  BANK15
  2714 ;;      Params:         0       0       0       0       0       0       0       0       0       0       0       0       
      +0       0       0       0       0
  2715 ;;      Locals:         0       0       0       0       0       0       0       0       0       0       0       0       
      +0       0       0       0       0
  2716 ;;      Temps:          0       0       0       0       0       0       0       0       0       0       0       0       
      +0       0       0       0       0
  2717 ;;      Totals:         0       0       0       0       0       0       0       0       0       0       0       0       
      +0       0       0       0       0
  2718 ;;Total ram usage:        0 bytes
  2719 ;; Hardware stack levels used: 1
  2720 ;; Hardware stack levels required when called: 2
  2721 ;; This function calls:
  2722 ;;		_I2C1_ErrorEventHandler
  2723 ;; This function is called by:
  2724 ;;		_INTERRUPT_InterruptManager
  2725 ;; This function uses a non-reentrant model
  2726 ;;
  2727                           
  2728                           	psect	text14
  2729   00142A                     __ptext14:
  2730                           	callstack 0
  2731   00142A                     _I2C1_ERROR_ISR:
  2732                           	callstack 24
  2733   00142A                     
  2734                           ;mcc_generated_files/i2c_client/src/mssp.c: 149:     I2C1_ErrorEventHandler();
  2735   00142A  EC53  F009         	call	_I2C1_ErrorEventHandler
  2736   00142E  0012               	return		;funcret
  2737   001430                     __end_of_I2C1_ERROR_ISR:
  2738                           	callstack 0
  2739                           
  2740 ;; *************** function _I2C1_ErrorEventHandler *****************
  2741 ;; Defined at:
  2742 ;;		line 246 in file "mcc_generated_files/i2c_client/src/mssp.c"
  2743 ;; Parameters:    Size  Location     Type
  2744 ;;		None
  2745 ;; Auto vars:     Size  Location     Type
  2746 ;;		None
  2747 ;; Return value:  Size  Location     Type
  2748 ;;                  1    wreg      void 
  2749 ;; Registers used:
  2750 ;;		wreg, status,2, status,0, pcl, pclath, pclatu, tosl, cstack
  2751 ;; Tracked objects:
  2752 ;;		On entry : 0/0
  2753 ;;		On exit  : 0/0
  2754 ;;		Unchanged: 0/0
  2755 ;; Data sizes:     COMRAM   BANK0   BANK1   BANK2   BANK3   BANK4   BANK5   BANK6   BANK7   BANK8   BANK9  BANK10  BANK1
      +1  BANK12  BANK13  BANK14  BANK15
  2756 ;;      Params:         0       0       0       0       0       0       0       0       0       0       0       0       
      +0       0       0       0       0
  2757 ;;      Locals:         0       0       0       0       0       0       0       0       0       0       0       0       
      +0       0       0       0       0
  2758 ;;      Temps:          0       0       0       0       0       0       0       0       0       0       0       0       
      +0       0       0       0       0
  2759 ;;      Totals:         0       0       0       0       0       0       0       0       0       0       0       0       
      +0       0       0       0       0
  2760 ;;Total ram usage:        0 bytes
  2761 ;; Hardware stack levels used: 1
  2762 ;; Hardware stack levels required when called: 1
  2763 ;; This function calls:
  2764 ;;		NULL
  2765 ;;		_I2C1_DefaultCallback
  2766 ;;		_I2C_InterruptHandler
  2767 ;; This function is called by:
  2768 ;;		_I2C1_ERROR_ISR
  2769 ;; This function uses a non-reentrant model
  2770 ;;
  2771                           
  2772                           	psect	text15
  2773   0012A6                     __ptext15:
  2774                           	callstack 0
  2775   0012A6                     _I2C1_ErrorEventHandler:
  2776                           	callstack 24
  2777   0012A6                     
  2778                           ;mcc_generated_files/i2c_client/src/mssp.c: 248:     if (PIR2bits.BCLIF)
  2779   0012A6  A6A1               	btfss	161,3,c	;volatile
  2780   0012A8  EF58  F009         	goto	i2u21_41
  2781   0012AC  EF5A  F009         	goto	i2u21_40
  2782   0012B0                     i2u21_41:
  2783   0012B0  EF6C  F009         	goto	i2l261
  2784   0012B4                     i2u21_40:
  2785   0012B4                     
  2786                           ;mcc_generated_files/i2c_client/src/mssp.c: 249:     {;mcc_generated_files/i2c_client/sr
      +                          c/mssp.c: 250:         i2c1ErrorState = I2C_CLIENT_ERROR_BUS_COLLISION;
  2787   0012B4  0E01               	movlw	1
  2788   0012B6  6E0F               	movwf	_i2c1ErrorState^0,c	;volatile
  2789   0012B8                     
  2790                           ;mcc_generated_files/i2c_client/src/mssp.c: 251:         I2C1_InterruptHandler(I2C_CLIEN
      +                          T_TRANSFER_EVENT_ERROR);
  2791   0012B8  D802               	call	i2u22_48
  2792   0012BA  EF69  F009         	goto	i2u22_49
  2793   0012BE                     i2u22_48:
  2794   0012BE  0005               	push	
  2795   0012C0  6EFA               	movwf	pclath,c
  2796   0012C2  5003               	movf	_I2C1_InterruptHandler^0,w,c
  2797   0012C4  6EFD               	movwf	tosl,c
  2798   0012C6  5004               	movf	(_I2C1_InterruptHandler+1)^0,w,c
  2799   0012C8  6EFE               	movwf	tosh,c
  2800   0012CA  6AFF               	clrf	tosu,c
  2801   0012CC  50FA               	movf	pclath,w,c
  2802   0012CE  0E05               	movlw	5
  2803   0012D0  0012               	return		;indir
  2804   0012D2                     i2u22_49:
  2805   0012D2                     
  2806                           ;mcc_generated_files/i2c_client/src/mssp.c: 252:         PIR2bits.BCLIF = 0;
  2807   0012D2  96A1               	bcf	161,3,c	;volatile
  2808                           
  2809                           ;mcc_generated_files/i2c_client/src/mssp.c: 253:     }
  2810   0012D4  EF83  F009         	goto	i2l1174
  2811   0012D8                     i2l261:
  2812   0012D8  AEC6               	btfss	198,7,c	;volatile
  2813   0012DA  EF71  F009         	goto	i2u23_41
  2814   0012DE  EF73  F009         	goto	i2u23_40
  2815   0012E2                     i2u23_41:
  2816   0012E2  EF83  F009         	goto	i2l1174
  2817   0012E6                     i2u23_40:
  2818   0012E6                     
  2819                           ;mcc_generated_files/i2c_client/src/mssp.c: 255:     {;mcc_generated_files/i2c_client/sr
      +                          c/mssp.c: 256:         i2c1ErrorState = I2C_CLIENT_ERROR_WRITE_COLLISION;
  2820   0012E6  0E02               	movlw	2
  2821   0012E8  6E0F               	movwf	_i2c1ErrorState^0,c	;volatile
  2822   0012EA                     
  2823                           ;mcc_generated_files/i2c_client/src/mssp.c: 257:         I2C1_InterruptHandler(I2C_CLIEN
      +                          T_TRANSFER_EVENT_ERROR);
  2824   0012EA  D802               	call	i2u24_48
  2825   0012EC  EF82  F009         	goto	i2u24_49
  2826   0012F0                     i2u24_48:
  2827   0012F0  0005               	push	
  2828   0012F2  6EFA               	movwf	pclath,c
  2829   0012F4  5003               	movf	_I2C1_InterruptHandler^0,w,c
  2830   0012F6  6EFD               	movwf	tosl,c
  2831   0012F8  5004               	movf	(_I2C1_InterruptHandler+1)^0,w,c
  2832   0012FA  6EFE               	movwf	tosh,c
  2833   0012FC  6AFF               	clrf	tosu,c
  2834   0012FE  50FA               	movf	pclath,w,c
  2835   001300  0E05               	movlw	5
  2836   001302  0012               	return		;indir
  2837   001304                     i2u24_49:
  2838   001304                     
  2839                           ;mcc_generated_files/i2c_client/src/mssp.c: 258:         SSPCON1bits.WCOL = 0;
  2840   001304  9EC6               	bcf	198,7,c	;volatile
  2841   001306                     i2l1174:
  2842                           
  2843                           ;mcc_generated_files/i2c_client/src/mssp.c: 261:     SSPCON1bits.CKP = 1;
  2844   001306  88C6               	bsf	198,4,c	;volatile
  2845   001308  0012               	return		;funcret
  2846   00130A                     __end_of_I2C1_ErrorEventHandler:
  2847                           	callstack 0
  2848                           
  2849 ;; *************** function _I2C1_DefaultCallback *****************
  2850 ;; Defined at:
  2851 ;;		line 264 in file "mcc_generated_files/i2c_client/src/mssp.c"
  2852 ;; Parameters:    Size  Location     Type
  2853 ;;  event           1    wreg     enum E2743
  2854 ;; Auto vars:     Size  Location     Type
  2855 ;;  event           1    0[COMRAM] enum E2743
  2856 ;; Return value:  Size  Location     Type
  2857 ;;                  1    wreg      _Bool 
  2858 ;; Registers used:
  2859 ;;		wreg
  2860 ;; Tracked objects:
  2861 ;;		On entry : 0/0
  2862 ;;		On exit  : 0/0
  2863 ;;		Unchanged: 0/0
  2864 ;; Data sizes:     COMRAM   BANK0   BANK1   BANK2   BANK3   BANK4   BANK5   BANK6   BANK7   BANK8   BANK9  BANK10  BANK1
      +1  BANK12  BANK13  BANK14  BANK15
  2865 ;;      Params:         0       0       0       0       0       0       0       0       0       0       0       0       
      +0       0       0       0       0
  2866 ;;      Locals:         0       0       0       0       0       0       0       0       0       0       0       0       
      +0       0       0       0       0
  2867 ;;      Temps:          0       0       0       0       0       0       0       0       0       0       0       0       
      +0       0       0       0       0
  2868 ;;      Totals:         0       0       0       0       0       0       0       0       0       0       0       0       
      +0       0       0       0       0
  2869 ;;Total ram usage:        0 bytes
  2870 ;; Hardware stack levels used: 1
  2871 ;; This function calls:
  2872 ;;		Nothing
  2873 ;; This function is called by:
  2874 ;;		_I2C1_Initialize
  2875 ;;		_I2C1_Deinitialize
  2876 ;;		_I2C1_EventHandler
  2877 ;;		_I2C1_ErrorEventHandler
  2878 ;; This function uses a non-reentrant model
  2879 ;;
  2880                           
  2881                           	psect	text16
  2882   001434                     __ptext16:
  2883                           	callstack 0
  2884   001434                     _I2C1_DefaultCallback:
  2885                           	callstack 24
  2886   001434                     
  2887                           ;mcc_generated_files/i2c_client/src/mssp.c: 264: static _Bool I2C1_DefaultCallback(i2c_c
      +                          lient_transfer_event_t event);mcc_generated_files/i2c_client/src/mssp.c: 265: {;mcc_gene
      +                          rated_files/i2c_client/src/mssp.c: 267:     return 0;
  2888   001434  0E00               	movlw	0
  2889   001436  0012               	return		;funcret
  2890   001438                     __end_of_I2C1_DefaultCallback:
  2891                           	callstack 0
  2892                           
  2893 ;; *************** function _I2C_InterruptHandler *****************
  2894 ;; Defined at:
  2895 ;;		line 45 in file "main.c"
  2896 ;; Parameters:    Size  Location     Type
  2897 ;;  clientEvent     1    wreg     enum E2746
  2898 ;; Auto vars:     Size  Location     Type
  2899 ;;  clientEvent     1    0[COMRAM] enum E2746
  2900 ;; Return value:  Size  Location     Type
  2901 ;;                  1    wreg      _Bool 
  2902 ;; Registers used:
  2903 ;;		wreg, status,2, status,0
  2904 ;; Tracked objects:
  2905 ;;		On entry : 0/0
  2906 ;;		On exit  : 0/0
  2907 ;;		Unchanged: 0/0
  2908 ;; Data sizes:     COMRAM   BANK0   BANK1   BANK2   BANK3   BANK4   BANK5   BANK6   BANK7   BANK8   BANK9  BANK10  BANK1
      +1  BANK12  BANK13  BANK14  BANK15
  2909 ;;      Params:         0       0       0       0       0       0       0       0       0       0       0       0       
      +0       0       0       0       0
  2910 ;;      Locals:         1       0       0       0       0       0       0       0       0       0       0       0       
      +0       0       0       0       0
  2911 ;;      Temps:          0       0       0       0       0       0       0       0       0       0       0       0       
      +0       0       0       0       0
  2912 ;;      Totals:         1       0       0       0       0       0       0       0       0       0       0       0       
      +0       0       0       0       0
  2913 ;;Total ram usage:        1 bytes
  2914 ;; Hardware stack levels used: 1
  2915 ;; This function calls:
  2916 ;;		Nothing
  2917 ;; This function is called by:
  2918 ;;		_main
  2919 ;;		_I2C1_EventHandler
  2920 ;;		_I2C1_ErrorEventHandler
  2921 ;; This function uses a non-reentrant model
  2922 ;;
  2923                           
  2924                           	psect	text17
  2925   0013A2                     __ptext17:
  2926                           	callstack 0
  2927   0013A2                     _I2C_InterruptHandler:
  2928                           	callstack 24
  2929                           
  2930                           ;incstack = 0
  2931                           ;I2C_InterruptHandler@clientEvent stored from wreg
  2932   0013A2  6E10               	movwf	I2C_InterruptHandler@clientEvent^0,c
  2933   0013A4                     
  2934                           ;main.c: 46:     i2c_interrupt_counter++;
  2935   0013A4  2A0D               	incf	_i2c_interrupt_counter^0,f,c	;volatile
  2936   0013A6                     
  2937                           ;main.c: 47:     if (clientEvent == I2C_CLIENT_TRANSFER_EVENT_RX_READY) {
  2938   0013A6  0E02               	movlw	2
  2939   0013A8  1810               	xorwf	I2C_InterruptHandler@clientEvent^0,w,c
  2940   0013AA  A4D8               	btfss	status,2,c
  2941   0013AC  EFDA  F009         	goto	i2u2_41
  2942   0013B0  EFDC  F009         	goto	i2u2_40
  2943   0013B4                     i2u2_41:
  2944   0013B4  EFDE  F009         	goto	i2l291
  2945   0013B8                     i2u2_40:
  2946   0013B8                     
  2947                           ;main.c: 48:         i2c_received_data = SSPBUF;
  2948   0013B8  CFC9 F00E          	movff	4041,_i2c_received_data	;volatile
  2949   0013BC                     i2l291:
  2950   0013BC  0012               	return		;funcret
  2951   0013BE                     __end_of_I2C_InterruptHandler:
  2952                           	callstack 0
  2953                           
  2954                           	psect	rparam
  2955   000001                     ___rparam_used  equ	1
  2956   000000                     ___param_bank   equ	0
  2957   000000                     __Lparam        equ	__Lrparam
  2958   000000                     __Hparam        equ	__Hrparam
  2959                           
  2960                           	psect	temp
  2961   00001B                     btemp:
  2962                           	callstack 0
  2963   00001B                     	ds	1
  2964   00001B                     int$flags       set	btemp
  2965   00001C                     wtemp8          set	btemp+1
  2966   00001C                     ttemp5          set	btemp+1
  2967   00001F                     ttemp6          set	btemp+4
  2968   000023                     ttemp7          set	btemp+8
  2969                           
  2970                           	psect	config
  2971                           
  2972                           ; Padding undefined space
  2973   300000                     	org	3145728
  2974   300000  FF                 	db	255
  2975                           
  2976                           ;Config register CONFIG1H @ 0x300001
  2977                           ;	Oscillator Selection bits
  2978                           ;	FOSC = INTIO67, Internal oscillator block, port function on RA6 and RA7
  2979                           ;	Fail-Safe Clock Monitor Enable bit
  2980                           ;	FCMEN = OFF, Fail-Safe Clock Monitor disabled
  2981                           ;	Internal/External Oscillator Switchover bit
  2982                           ;	IESO = OFF, Oscillator Switchover mode disabled
  2983   300001                     	org	3145729
  2984   300001  08                 	db	8
  2985                           
  2986                           ;Config register CONFIG2L @ 0x300002
  2987                           ;	Power-up Timer Enable bit
  2988                           ;	PWRTEN = OFF, PWRT disabled
  2989                           ;	Brown-out Reset Enable bits
  2990                           ;	BOREN = SBORDIS, Brown-out Reset enabled in hardware only (SBOREN is disabled)
  2991                           ;	Brown Out Reset Voltage bits
  2992                           ;	BORV = 18, VBOR set to 1.8 V nominal
  2993   300002                     	org	3145730
  2994   300002  1F                 	db	31
  2995                           
  2996                           ;Config register CONFIG2H @ 0x300003
  2997                           ;	Watchdog Timer Enable bit
  2998                           ;	WDTEN = OFF, WDT is controlled by SWDTEN bit of the WDTCON register
  2999                           ;	Watchdog Timer Postscale Select bits
  3000                           ;	WDTPS = 32768, 1:32768
  3001   300003                     	org	3145731
  3002   300003  1E                 	db	30
  3003                           
  3004                           ; Padding undefined space
  3005   300004                     	org	3145732
  3006   300004  FF                 	db	255
  3007                           
  3008                           ;Config register CONFIG3H @ 0x300005
  3009                           ;	CCP2 MUX bit
  3010                           ;	CCP2MX = PORTC, CCP2 input/output is multiplexed with RC1
  3011                           ;	PORTB A/D Enable bit
  3012                           ;	PBADEN = ON, PORTB<4:0> pins are configured as analog input channels on Reset
  3013                           ;	Low-Power Timer1 Oscillator Enable bit
  3014                           ;	LPT1OSC = OFF, Timer1 configured for higher power operation
  3015                           ;	HFINTOSC Fast Start-up
  3016                           ;	HFOFST = ON, HFINTOSC starts clocking the CPU without waiting for the oscillator to st
      +                          ablize.
  3017                           ;	MCLR Pin Enable bit
  3018                           ;	MCLRE = ON, MCLR pin enabled; RE3 input pin disabled
  3019   300005                     	org	3145733
  3020   300005  8B                 	db	139
  3021                           
  3022                           ;Config register CONFIG4L @ 0x300006
  3023                           ;	Stack Full/Underflow Reset Enable bit
  3024                           ;	STVREN = ON, Stack full/underflow will cause Reset
  3025                           ;	Single-Supply ICSP Enable bit
  3026                           ;	LVP = ON, Single-Supply ICSP enabled
  3027                           ;	Extended Instruction Set Enable bit
  3028                           ;	XINST = OFF, Instruction set extension and Indexed Addressing mode disabled (Legacy mo
      +                          de)
  3029                           ;	Background Debugger Enable bit
  3030                           ;	DEBUG = 0x1, unprogrammed default
  3031   300006                     	org	3145734
  3032   300006  85                 	db	133
  3033                           
  3034                           ; Padding undefined space
  3035   300007                     	org	3145735
  3036   300007  FF                 	db	255
  3037                           
  3038                           ;Config register CONFIG5L @ 0x300008
  3039                           ;	Code Protection Block 0
  3040                           ;	CP0 = OFF, Block 0 (000800-003FFFh) not code-protected
  3041                           ;	Code Protection Block 1
  3042                           ;	CP1 = OFF, Block 1 (004000-007FFFh) not code-protected
  3043                           ;	Code Protection Block 2
  3044                           ;	CP2 = OFF, Block 2 (008000-00BFFFh) not code-protected
  3045                           ;	Code Protection Block 3
  3046                           ;	CP3 = OFF, Block 3 (00C000-00FFFFh) not code-protected
  3047   300008                     	org	3145736
  3048   300008  0F                 	db	15
  3049                           
  3050                           ;Config register CONFIG5H @ 0x300009
  3051                           ;	Boot Block Code Protection bit
  3052                           ;	CPB = OFF, Boot block (000000-0007FFh) not code-protected
  3053                           ;	Data EEPROM Code Protection bit
  3054                           ;	CPD = OFF, Data EEPROM not code-protected
  3055   300009                     	org	3145737
  3056   300009  C0                 	db	192
  3057                           
  3058                           ;Config register CONFIG6L @ 0x30000A
  3059                           ;	Write Protection Block 0
  3060                           ;	WRT0 = OFF, Block 0 (000800-003FFFh) not write-protected
  3061                           ;	Write Protection Block 1
  3062                           ;	WRT1 = OFF, Block 1 (004000-007FFFh) not write-protected
  3063                           ;	Write Protection Block 2
  3064                           ;	WRT2 = OFF, Block 2 (008000-00BFFFh) not write-protected
  3065                           ;	Write Protection Block 3
  3066                           ;	WRT3 = OFF, Block 3 (00C000h-00FFFFh) not write-protected
  3067   30000A                     	org	3145738
  3068   30000A  0F                 	db	15
  3069                           
  3070                           ;Config register CONFIG6H @ 0x30000B
  3071                           ;	Configuration Register Write Protection bit
  3072                           ;	WRTC = OFF, Configuration registers (300000-3000FFh) not write-protected
  3073                           ;	Boot Block Write Protection bit
  3074                           ;	WRTB = OFF, Boot Block (000000-0007FFh) not write-protected
  3075                           ;	Data EEPROM Write Protection bit
  3076                           ;	WRTD = OFF, Data EEPROM not write-protected
  3077   30000B                     	org	3145739
  3078   30000B  E0                 	db	224
  3079                           
  3080                           ;Config register CONFIG7L @ 0x30000C
  3081                           ;	Table Read Protection Block 0
  3082                           ;	EBTR0 = OFF, Block 0 (000800-003FFFh) not protected from table reads executed in other
      +                           blocks
  3083                           ;	Table Read Protection Block 1
  3084                           ;	EBTR1 = OFF, Block 1 (004000-007FFFh) not protected from table reads executed in other
      +                           blocks
  3085                           ;	Table Read Protection Block 2
  3086                           ;	EBTR2 = OFF, Block 2 (008000-00BFFFh) not protected from table reads executed in other
      +                           blocks
  3087                           ;	Table Read Protection Block 3
  3088                           ;	EBTR3 = OFF, Block 3 (00C000-00FFFFh) not protected from table reads executed in other
      +                           blocks
  3089   30000C                     	org	3145740
  3090   30000C  0F                 	db	15
  3091                           
  3092                           ;Config register CONFIG7H @ 0x30000D
  3093                           ;	Boot Block Table Read Protection bit
  3094                           ;	EBTRB = OFF, Boot Block (000000-0007FFh) not protected from table reads executed in ot
      +                          her blocks
  3095   30000D                     	org	3145741
  3096   30000D  40                 	db	64
  3097                           tosu	equ	0xFFF
  3098                           tosh	equ	0xFFE
  3099                           tosl	equ	0xFFD
  3100                           stkptr	equ	0xFFC
  3101                           pclatu	equ	0xFFB
  3102                           pclath	equ	0xFFA
  3103                           pcl	equ	0xFF9
  3104                           tblptru	equ	0xFF8
  3105                           tblptrh	equ	0xFF7
  3106                           tblptrl	equ	0xFF6
  3107                           tablat	equ	0xFF5
  3108                           prodh	equ	0xFF4
  3109                           prodl	equ	0xFF3
  3110                           indf0	equ	0xFEF
  3111                           postinc0	equ	0xFEE
  3112                           postdec0	equ	0xFED
  3113                           preinc0	equ	0xFEC
  3114                           plusw0	equ	0xFEB
  3115                           fsr0h	equ	0xFEA
  3116                           fsr0l	equ	0xFE9
  3117                           wreg	equ	0xFE8
  3118                           indf1	equ	0xFE7
  3119                           postinc1	equ	0xFE6
  3120                           postdec1	equ	0xFE5
  3121                           preinc1	equ	0xFE4
  3122                           plusw1	equ	0xFE3
  3123                           fsr1h	equ	0xFE2
  3124                           fsr1l	equ	0xFE1
  3125                           bsr	equ	0xFE0
  3126                           indf2	equ	0xFDF
  3127                           postinc2	equ	0xFDE
  3128                           postdec2	equ	0xFDD
  3129                           preinc2	equ	0xFDC
  3130                           plusw2	equ	0xFDB
  3131                           fsr2h	equ	0xFDA
  3132                           fsr2l	equ	0xFD9
  3133                           status	equ	0xFD8

Data Sizes:
    Strings     0
    Constant    18
    Data        0
    BSS         15
    Persistent  0
    Stack       0

Auto Spaces:
    Space          Size  Autos    Used
    COMRAM           94     11      26
    BANK0           160      0       0
    BANK1           256      0       0
    BANK2           256      0       0
    BANK3           256      0       0
    BANK4           256      0       0
    BANK5           256      0       0
    BANK6           256      0       0
    BANK7           256      0       0
    BANK8           256      0       0
    BANK9           256      0       0
    BANK10          256      0       0
    BANK11          256      0       0
    BANK12          256      0       0
    BANK13          256      0       0
    BANK14          256      0       0
    BANK15           96      0       0

Pointer List with Targets:

    I2C1_CallbackRegister@callback	PTR FTN(enum E2743,)_Bool  size(2) Largest target is 1
		 -> I2C1_DefaultCallback(), I2C_InterruptHandler(), 

    I2C1_Client$CallbackRegister	PTR FTN(PTR FTN(enum E2743,)_Bool ,)void  size(2) Largest target is 1
		 -> I2C1_CallbackRegister(), 

    I2C1_Client$Deinitialize	PTR FTN()void  size(2) Largest target is 1
		 -> I2C1_Deinitialize(), 

    I2C1_Client$ErrorGet	PTR FTN()enum E2751 size(2) Largest target is 1
		 -> I2C1_ErrorGet(), 

    I2C1_Client$Initialize	PTR FTN()void  size(2) Largest target is 1
		 -> I2C1_Initialize(), 

    I2C1_Client$LastByteAckStatusGet	PTR FTN()enum E2739 size(2) Largest target is 1
		 -> I2C1_LastByteAckStatusGet(), 

    I2C1_Client$ReadByte	PTR FTN()unsigned char  size(2) Largest target is 1
		 -> I2C1_ReadByte(), 

    I2C1_Client$Tasks	PTR FTN()void  size(2) Largest target is 1
		 -> NULL(), 

    I2C1_Client$TransferDirGet	PTR FTN()enum E2735 size(2) Largest target is 1
		 -> I2C1_TransferDirGet(), 

    I2C1_Client$WriteByte	PTR FTN(unsigned char ,)void  size(2) Largest target is 1
		 -> I2C1_WriteByte(), 

    I2C1_InterruptHandler	PTR FTN(enum E2743,)_Bool  size(2) Largest target is 1
		 -> I2C1_DefaultCallback(), I2C_InterruptHandler(), NULL(), 

    INT0_InterruptHandler	PTR FTN()void  size(2) Largest target is 1
		 -> INT0_DefaultInterruptHandler(), NULL(), 

    INT1_InterruptHandler	PTR FTN()void  size(2) Largest target is 1
		 -> INT1_DefaultInterruptHandler(), NULL(), 

    INT2_InterruptHandler	PTR FTN()void  size(2) Largest target is 1
		 -> INT2_DefaultInterruptHandler(), NULL(), 

    S606$7$0	PTR FTN(enum E2743,)_Bool  size(2) Largest target is 1
		 -> I2C1_DefaultCallback(), I2C_InterruptHandler(), 

    S606I2C_CLIENT_INTERFACE$CallbackRegister	PTR FTN(PTR FTN(enum E2743,)_Bool ,)void  size(2) Largest target is 1
		 -> I2C1_CallbackRegister(), 

    S606I2C_CLIENT_INTERFACE$Deinitialize	PTR FTN()void  size(2) Largest target is 1
		 -> I2C1_Deinitialize(), 

    S606I2C_CLIENT_INTERFACE$ErrorGet	PTR FTN()enum E2751 size(2) Largest target is 1
		 -> I2C1_ErrorGet(), 

    S606I2C_CLIENT_INTERFACE$Initialize	PTR FTN()void  size(2) Largest target is 1
		 -> I2C1_Initialize(), 

    S606I2C_CLIENT_INTERFACE$LastByteAckStatusGet	PTR FTN()enum E2739 size(2) Largest target is 1
		 -> I2C1_LastByteAckStatusGet(), 

    S606I2C_CLIENT_INTERFACE$ReadByte	PTR FTN()unsigned char  size(2) Largest target is 1
		 -> I2C1_ReadByte(), 

    S606I2C_CLIENT_INTERFACE$Tasks	PTR FTN()void  size(2) Largest target is 1
		 -> NULL(), 

    S606I2C_CLIENT_INTERFACE$TransferDirGet	PTR FTN()enum E2735 size(2) Largest target is 1
		 -> I2C1_TransferDirGet(), 

    S606I2C_CLIENT_INTERFACE$WriteByte	PTR FTN(unsigned char ,)void  size(2) Largest target is 1
		 -> I2C1_WriteByte(), 

    TMR2_OverflowCallback	PTR FTN()void  size(2) Largest target is 1
		 -> TMR2_DefaultOverflowCallback(), NULL(), 

    TMR2_OverflowCallbackRegister@InterruptHandler	PTR FTN()void  size(2) Largest target is 1
		 -> TMR2_DefaultOverflowCallback(), 


Critical Paths under _main in COMRAM

    _main->_CCP2_LoadDutyValue
    _TMR2_Initialize->_TMR2_OverflowCallbackRegister
    _I2C1_Initialize->_I2C1_CallbackRegister

Critical Paths under _INTERRUPT_InterruptManager in COMRAM

    _I2C1_ISR->_I2C1_EventHandler
    _I2C1_EventHandler->_I2C_InterruptHandler
    _I2C1_ErrorEventHandler->_I2C_InterruptHandler

Critical Paths under _main in BANK0

    None.

Critical Paths under _INTERRUPT_InterruptManager in BANK0

    None.

Critical Paths under _main in BANK1

    None.

Critical Paths under _INTERRUPT_InterruptManager in BANK1

    None.

Critical Paths under _main in BANK2

    None.

Critical Paths under _INTERRUPT_InterruptManager in BANK2

    None.

Critical Paths under _main in BANK3

    None.

Critical Paths under _INTERRUPT_InterruptManager in BANK3

    None.

Critical Paths under _main in BANK4

    None.

Critical Paths under _INTERRUPT_InterruptManager in BANK4

    None.

Critical Paths under _main in BANK5

    None.

Critical Paths under _INTERRUPT_InterruptManager in BANK5

    None.

Critical Paths under _main in BANK6

    None.

Critical Paths under _INTERRUPT_InterruptManager in BANK6

    None.

Critical Paths under _main in BANK7

    None.

Critical Paths under _INTERRUPT_InterruptManager in BANK7

    None.

Critical Paths under _main in BANK8

    None.

Critical Paths under _INTERRUPT_InterruptManager in BANK8

    None.

Critical Paths under _main in BANK9

    None.

Critical Paths under _INTERRUPT_InterruptManager in BANK9

    None.

Critical Paths under _main in BANK10

    None.

Critical Paths under _INTERRUPT_InterruptManager in BANK10

    None.

Critical Paths under _main in BANK11

    None.

Critical Paths under _INTERRUPT_InterruptManager in BANK11

    None.

Critical Paths under _main in BANK12

    None.

Critical Paths under _INTERRUPT_InterruptManager in BANK12

    None.

Critical Paths under _main in BANK13

    None.

Critical Paths under _INTERRUPT_InterruptManager in BANK13

    None.

Critical Paths under _main in BANK14

    None.

Critical Paths under _INTERRUPT_InterruptManager in BANK14

    None.

Critical Paths under _main in BANK15

    None.

Critical Paths under _INTERRUPT_InterruptManager in BANK15

    None.

Call Graph Tables:

 ---------------------------------------------------------------------------------
 (Depth) Function   	        Calls       Base Space   Used Autos Params    Refs
 ---------------------------------------------------------------------------------
 (0) _main                                                 2     2      0     189
                                              9 COMRAM     2     2      0
                 _CCP2_LoadDutyValue
              _I2C1_CallbackRegister
                  _SYSTEM_Initialize
 ---------------------------------------------------------------------------------
 (1) _SYSTEM_Initialize                                    0     0      0      70
                    _CCP2_Initialize
                   _CLOCK_Initialize
                    _I2C1_Initialize
             _PIN_MANAGER_Initialize
                    _TMR2_Initialize
 ---------------------------------------------------------------------------------
 (2) _TMR2_Initialize                                      0     0      0      23
      _TMR2_OverflowCallbackRegister
 ---------------------------------------------------------------------------------
 (3) _TMR2_OverflowCallbackRegister                        2     0      2      23
                                              5 COMRAM     2     0      2
 ---------------------------------------------------------------------------------
 (2) _PIN_MANAGER_Initialize                               0     0      0       0
 ---------------------------------------------------------------------------------
 (2) _I2C1_Initialize                                      0     0      0      47
              _I2C1_CallbackRegister
 ---------------------------------------------------------------------------------
 (3) _I2C1_CallbackRegister                                2     0      2      47
                                              5 COMRAM     2     0      2
 ---------------------------------------------------------------------------------
 (2) _CLOCK_Initialize                                     0     0      0       0
 ---------------------------------------------------------------------------------
 (2) _CCP2_Initialize                                      0     0      0       0
 ---------------------------------------------------------------------------------
 (1) _CCP2_LoadDutyValue                                   4     2      2      47
                                              5 COMRAM     4     2      2
 ---------------------------------------------------------------------------------
 Estimated maximum stack depth 3
 ---------------------------------------------------------------------------------
 (Depth) Function   	        Calls       Base Space   Used Autos Params    Refs
 ---------------------------------------------------------------------------------
 (4) _INTERRUPT_InterruptManager                           2     2      0      30
                                              3 COMRAM     2     2      0
                     _I2C1_ERROR_ISR
                           _I2C1_ISR
 ---------------------------------------------------------------------------------
 (5) _I2C1_ISR                                             0     0      0      15
                  _I2C1_EventHandler
 ---------------------------------------------------------------------------------
 (6) _I2C1_EventHandler                                    2     2      0      15
                                              1 COMRAM     2     2      0
                                NULL *
               _I2C1_DefaultCallback *
                      _I2C1_ReadByte
               _I2C_InterruptHandler *
 ---------------------------------------------------------------------------------
 (7) _I2C1_ReadByte                                        0     0      0       0
 ---------------------------------------------------------------------------------
 (5) _I2C1_ERROR_ISR                                       0     0      0      15
             _I2C1_ErrorEventHandler
 ---------------------------------------------------------------------------------
 (6) _I2C1_ErrorEventHandler                               0     0      0      15
                                NULL *
               _I2C1_DefaultCallback *
               _I2C_InterruptHandler *
 ---------------------------------------------------------------------------------
 (7) _I2C_InterruptHandler                                 1     1      0      15
                                              0 COMRAM     1     1      0
 ---------------------------------------------------------------------------------
 (7) _I2C1_DefaultCallback                                 1     1      0       0
 ---------------------------------------------------------------------------------
 (7) NULL(Fake)                                            0     0      0       0
 ---------------------------------------------------------------------------------
 Estimated maximum stack depth 7
 ---------------------------------------------------------------------------------

 Call Graph Graphs:

 _main (ROOT)
   _CCP2_LoadDutyValue
   _I2C1_CallbackRegister
   _SYSTEM_Initialize
     _CCP2_Initialize
     _CLOCK_Initialize
     _I2C1_Initialize
       _I2C1_CallbackRegister
     _PIN_MANAGER_Initialize
     _TMR2_Initialize
       _TMR2_OverflowCallbackRegister

 _INTERRUPT_InterruptManager (ROOT)
   _I2C1_ERROR_ISR
     _I2C1_ErrorEventHandler
       NULL(Fake) *
       _I2C1_DefaultCallback *
       _I2C_InterruptHandler *
   _I2C1_ISR
     _I2C1_EventHandler
       NULL(Fake) *
       _I2C1_DefaultCallback *
       _I2C1_ReadByte *
       _I2C_InterruptHandler *

Address spaces:
Name               Size   Autos  Total    Usage
BIGRAM            3935      0       0      0.0%
BITBANK14          256      0       0      0.0%
BANK14             256      0       0      0.0%
BITBANK13          256      0       0      0.0%
BANK13             256      0       0      0.0%
BITBANK12          256      0       0      0.0%
BANK12             256      0       0      0.0%
BITBANK11          256      0       0      0.0%
BANK11             256      0       0      0.0%
BITBANK10          256      0       0      0.0%
BANK10             256      0       0      0.0%
BITBANK9           256      0       0      0.0%
BANK9              256      0       0      0.0%
BITBANK8           256      0       0      0.0%
BANK8              256      0       0      0.0%
BITBANK7           256      0       0      0.0%
BANK7              256      0       0      0.0%
BITBANK6           256      0       0      0.0%
BANK6              256      0       0      0.0%
BITBANK5           256      0       0      0.0%
BANK5              256      0       0      0.0%
BITBANK4           256      0       0      0.0%
BANK4              256      0       0      0.0%
BITBANK3           256      0       0      0.0%
BANK3              256      0       0      0.0%
BITBANK2           256      0       0      0.0%
BANK2              256      0       0      0.0%
BITBANK1           256      0       0      0.0%
BANK1              256      0       0      0.0%
BITBANK0           160      0       0      0.0%
BANK0              160      0       0      0.0%
BITBANK15           96      0       0      0.0%
BANK15              96      0       0      0.0%
BITCOMRAM           94      0       0      0.0%
COMRAM              94     11      26     27.7%
BITBIGSFRh          57      0       0      0.0%
BITBIGSFRlh         36      0       0      0.0%
BITBIGSFRllllll     23      0       0      0.0%
BITBIGSFRllh        20      0       0      0.0%
BITBIGSFRllllh       9      0       0      0.0%
BITBIGSFRllllll      5      0       0      0.0%
BITBIGSFRlllh        2      0       0      0.0%
BITBIGSFRlllllh      1      0       0      0.0%
STACK                0      0       0      0.0%
DATA                 0      0      26      0.0%


Microchip Technology PIC18 Macro Assembler V2.50 build 20240725155939 
Symbol Table                                                                                   Sun Sep 22 14:50:08 2024

               ?_TMR2_OverflowCallbackRegister 0015                         ??_I2C1_DefaultCallback 0010  
                                  _SSPSTATbits 0FC7                      I2C1_DefaultCallback@event 0010  
                                           l13 1402                                            l114 1422  
                                          l301 1238                                            l207 1384  
                                          l232 13A0                                            l145 1360  
                                          l331 1410                                            l334 1338  
                                          l353 13D6                                            l371 141A  
                              ??_I2C1_ReadByte 0010                                            u430 1398  
                                          _PR2 0FCB                                            u431 1394  
                                          u440 11D6                                            u441 11D2  
                                          u450 11E6                                            u451 11E2  
                                          u460 11FA                                            u461 11F4  
                                          u470 121E                                            u471 1218  
                                          u480 124A                                            u481 1246  
                                          u466 11FC                                            u476 1220  
                              _TMR2_Initialize 13BE                                            tosl 0FFD  
                                          wreg 0FE8                               __end_of_I2C1_ISR 142A  
                                         l1114 1404                                           l1116 1408  
                                         l1118 140E                                           l1080 133E  
                                         l1400 11D6                                           l1074 141C  
                                         l1330 1386                                           l1090 135A  
                                         l1082 1342                                           l1410 124A  
                                         l1402 11E6                                           l1076 1420  
                                         l1332 1398                                           l1340 136A  
                                         l1092 135C                                           l1084 1344  
                                         l1420 127E                                           l1412 124C  
                                         l1404 11EA                                           l1350 1376  
                                         l1342 136C                                           l1094 135E  
                                         l1086 1346                                           l1078 133A  
                                         l1334 1412                                           l1414 1252  
                                         l1406 120E                                           l1352 1382  
                                         l1344 1370                                           l1336 1362  
                                         l1088 1348                                           l1360 13CA  
                                         l1416 1262                                           l1424 1284  
                                         l1408 123A                                           l1346 1372  
                                         l1338 1366                                           l1354 13BE  
                                         l1362 13EE                                           l1418 1272  
                                         l1348 1374                                           l1356 13C2  
                                         l1364 13F6                                           l1358 13C4  
                                         l1366 13FA                                           l1390 11C0  
                                         l1368 130A                                           l1392 11C2  
                                         l1394 11C4                                           l1386 11AE  
                                         l1396 11C6                                           l1388 11BE  
                                         l1398 11C8                              _I2C1_Deinitialize 0000  
                                         _IOCB 0F7D                                           _LATA 0F89  
                                         _LATB 0F8A                                           _LATC 0F8B  
                                         _LATD 0F8C                                           _LATE 0F8D  
                                         i2l68 0060                                           _TMR2 0FCC  
                                         _WPUB 0F7C                     __end_of_CCP2_LoadDutyValue 133A  
                               _i2c1ErrorState 000F                        __end_of_CCP2_Initialize 1412  
                                         _main 11AE                                           btemp 001B  
                                         start 006C                                   ___param_bank 0000  
                                        ?_main 0010                                          _T2CON 0FCA  
                                        i2l216 1432                                          i2l241 1042  
                                        i2l242 11AA                                          i2l243 110A  
                                        i2l235 1428                                          i2l252 1166  
                                        i2l244 1084                                          i2l261 12D8  
                                        i2l245 11AC                                          i2l238 142E  
                                        i2l246 1102                                          i2l247 10FA  
                                        i2l264 1308                                          i2l257 11A6  
                                        i2l291 13BC                                          i2l267 1436  
                                        _TRISA 0F92                                          _TRISB 0F93  
                                        _TRISC 0F94                                          _TRISD 0F95  
                                        _TRISE 0F96                              ??_I2C1_Initialize 0017  
                      ??_I2C1_CallbackRegister 0017                                          pclath 0FFA  
                                        pclatu 0FFB                                          ttemp5 001C  
                                        ttemp6 001F                                          ttemp7 0023  
                                        status 0FD8                                          wtemp8 001C  
                              __initialization 13D8                       ??_I2C1_ErrorEventHandler 0011  
                                 __end_of_main 12A6                          _I2C1_InterruptHandler 0003  
                      __end_of_TMR2_Initialize 13D8                    ?_INTERRUPT_InterruptManager 0010  
                                       ??_main 0019                                  __activetblptr 0003  
                                       _CCPR2H 0FBC                                         _CCPR2L 0FBB  
                                       _ANSELH 0F7F                                         i2l1130 1024  
                                       i2l1210 002E                                         i2l1140 10B0  
                                       i2l1132 1050                                         i2l1212 003C  
                                       i2l1070 13B8                                         i2l1062 1434  
                                       i2l1150 1126                                         i2l1142 10BE  
                                       i2l1134 105C                                         i2l1214 0040  
                                       i2l1206 0012                                         i2l1160 12A6  
                                       i2l1152 1134                                         i2l1144 10CC  
                                       i2l1136 107A                                         i2l1128 1014  
                                       i2l1216 004E                                         i2l1208 0020  
                                       i2l1066 13A4                                         i2l1170 12EA  
                                       i2l1162 12B4                                         i2l1058 1430  
                                       i2l1154 115E                                         i2l1146 10F6  
                                       i2l1138 1086                                         i2l1218 005C  
                                       i2l1068 13A6                                         i2l1172 1304  
                                       i2l1164 12B8                                         i2l1156 1174  
                                       i2l1148 1118                                         i2l1174 1306  
                                       i2l1166 12D2                                         i2l1182 142A  
                                       i2l1158 119E                                         i2l1168 12E6  
                                       i2l1184 1424                                         _OSCCON 0FD3  
                                       i2u2_40 13B8                                         i2u2_41 13B4  
                                       i2u3_40 1024                                         i2u3_41 1020  
                                       i2u5_40 1050                                         i2u4_48 102A  
                                       i2u5_41 104C                                         i2u4_49 103E  
                                       i2u6_40 107A                                         i2u6_41 1076  
                                       _SSPADD 0FC8                                         i2u8_40 10B0  
                                       i2u7_48 108C                                         i2u8_41 10AC  
                                       i2u7_49 10A0                                         i2u9_40 10BE  
                                       i2u9_41 10BA                                         _SSPBUF 0FC9  
                             ?_CCP2_Initialize 0010                                         _SSPMSK 0F77  
                 _TMR2_DefaultOverflowCallback 0000                                      ?_I2C1_ISR 0010  
                                       clear_0 13DE                                         isa$std 0001  
                            ?_CLOCK_Initialize 0010                   _INT2_DefaultInterruptHandler 0000  
                           ??_CLOCK_Initialize 0015                                   __mediumconst 0000  
                  CCP2_LoadDutyValue@dutyValue 0015                              _SYSTEM_Initialize 13EE  
                                   __accesstop 0060                        __end_of__initialization 13E4  
                           ?_SYSTEM_Initialize 0010                                  ___rparam_used 0001  
                               __pcstackCOMRAM 0010                            ??_SYSTEM_Initialize 0017  
                                   ??_I2C1_ISR 0013                               ?_TMR2_Initialize 0010  
                I2C1_CallbackRegister@callback 0015                ??_TMR2_OverflowCallbackRegister 0017  
                            _I2C1_EventHandler 1014                      __end_of_SYSTEM_Initialize 1404  
                           ?_I2C1_EventHandler 0010                          _INT0_InterruptHandler 000B  
                          ??_I2C1_EventHandler 0011                            __end_of_I2C1_Client 1013  
                           _CCP2_LoadDutyValue 130A                                _I2C1_Initialize 1362  
                                      _CCP2CON 0FBA                            ?_CCP2_LoadDutyValue 0015  
                        __end_of_I2C1_ReadByte 1434                      __end_of_I2C1_EventHandler 11AE  
                                      i2u10_40 10CC                                        i2u10_41 10C8  
                                      i2u20_40 119E                                        i2u12_40 10F6  
                                      i2u11_48 10D2                                        i2u20_41 119A  
                                      i2u12_41 10F2                                        i2u11_49 10E6  
                                      i2u21_40 12B4                                        i2u13_40 1118  
                                      i2u21_41 12B0                                        i2u13_41 1114  
                                      i2u14_40 1126                                        i2u14_41 1122  
                                      i2u23_40 12E6                                        i2u22_48 12BE  
                                      i2u15_40 1134                                        i2u23_41 12E2  
                                      i2u22_49 12D2                                        i2u15_41 1130  
                                      i2u24_48 12F0                                        i2u17_40 115E  
                                      i2u16_48 113A                                        i2u25_40 0020  
                                      i2u24_49 1304                                        i2u17_41 115A  
                                      i2u16_49 114E                                        i2u25_41 001C  
                                      i2u18_40 1174                                        i2u26_40 002E  
                                      i2u18_41 1170                                        i2u26_41 002A  
                                      i2u27_40 003C                                        i2u27_41 0038  
                                      i2u19_48 117A                                        i2u28_40 004E  
                                      i2u19_49 118E                                        i2u28_41 004A  
                                      i2u29_40 005C                                        i2u29_41 0058  
                       _I2C1_ErrorEventHandler 12A6                                        _OSCTUNE 0F9B  
                                      _SSPCON1 0FC6                                        _SSPCON2 0FC5  
                    _I2C1_LastByteAckStatusGet 0000                                        _SSPSTAT 0FC7  
                __end_of_I2C1_CallbackRegister 13A2                           ??_CCP2_LoadDutyValue 0017  
                                      __Hparam 0000                                        __Lparam 0000  
                                 __psmallconst 1000                                        __pcinit 13D8  
                                      __ramtop 1000                                        __ptext0 11AE  
                                      __ptext1 13EE                                        __ptext2 13BE  
                                      __ptext3 1412                                        __ptext4 133A  
                                      __ptext5 1362                                        __ptext6 1386  
                                      __ptext7 141C                                        __ptext8 1404  
                                      __ptext9 130A                                      _T2CONbits 0FCA  
                                    _T3CONbits 0FB1                       ??_PIN_MANAGER_Initialize 0015  
TMR2_OverflowCallbackRegister@InterruptHandler 0015                           end_of_initialization 13E4  
                                  _I2C1_Client 1001                        __end_of_I2C1_Initialize 1386  
                                      postinc0 0FEE                          _INT1_InterruptHandler 0009  
                                    _PORTCbits 0F82                          _i2c_interrupt_counter 000D  
                               _I2C1_ERROR_ISR 142A                   _INT0_DefaultInterruptHandler 0000  
                 __end_of_I2C_InterruptHandler 13BE                            start_initialization 13D8  
              I2C_InterruptHandler@clientEvent 0010                               ?_I2C1_Initialize 0010  
                       __end_of_I2C1_ERROR_ISR 1430                        ?_I2C1_ErrorEventHandler 0010  
                                  __pbssCOMRAM 0001                   __end_of_I2C1_DefaultCallback 1438  
                        _INT2_InterruptHandler 0007                          _TMR2_OverflowCallback 0001  
                       _PIN_MANAGER_Initialize 133A                                ?_I2C1_ERROR_ISR 0010  
                                    __pintcode 0008                                       _I2C1_ISR 1424  
                 ??_INTERRUPT_InterruptManager 0013                 __end_of_I2C1_ErrorEventHandler 130A  
                                  __smallconst 1000                              ??_CCP2_Initialize 0015  
                             _CLOCK_Initialize 141C                                       _LATCbits 0F8B  
                                     _LATDbits 0F8C                          _I2C1_CallbackRegister 1386  
                                     _PIE1bits 0F9D                                       _PIE2bits 0FA0  
                         _I2C_InterruptHandler 13A2                                       _PIR1bits 0F9E  
                                     _PIR2bits 0FA1                                 _I2C1_WriteByte 0000  
                                     _RCONbits 0FD0                                       _i2c1Addr 0005  
                                  _INTCON2bits 0FF1                                    _INTCON3bits 0FF0  
                            ??_TMR2_Initialize 0017                          ?_I2C_InterruptHandler 0010  
                                     __Hrparam 0000                                       __Lrparam 0000  
                          main@toggle_dir_flag 001A                           _I2C1_DefaultCallback 1434  
                                _I2C1_ReadByte 1430                                  _I2C1_ErrorGet 0000  
                                     __ptext11 1424                                       __ptext12 1014  
                                     __ptext13 1430                                       __ptext14 142A  
                                     __ptext15 12A6                                       __ptext16 1434  
                                     __ptext17 13A2                         ?_I2C1_CallbackRegister 0015  
        __end_of_TMR2_OverflowCallbackRegister 141C                  _TMR2_OverflowCallbackRegister 1412  
                                     isa$xinst 0000                                       int$flags 001B  
           __end_of_INTERRUPT_InterruptManager 006C                     _INTERRUPT_InterruptManager 0008  
                        ?_I2C1_DefaultCallback 0010                   _INT1_DefaultInterruptHandler 0000  
                                   _INTCONbits 0FF2                                 ?_I2C1_ReadByte 0010  
                                     intlevel2 0000                               ??_I2C1_ERROR_ISR 0011  
                      ?_PIN_MANAGER_Initialize 0010                         ??_I2C_InterruptHandler 0010  
                            _i2c_received_data 000E                                _CCP2_Initialize 1404  
                     __end_of_CLOCK_Initialize 1424                            _I2C1_TransferDirGet 0000  
                                  _SSPCON1bits 0FC6                                    _SSPCON2bits 0FC5  
               __end_of_PIN_MANAGER_Initialize 1362  
