

Microchip MPLAB XC8 Assembler V2.46 build 20240104201356 
                                                                                               Sat Aug 24 19:22:58 2024

Microchip MPLAB XC8 C Compiler v2.46 (Free license) build 20240104201356 Og1 
     1                           	processor	18F4620
     2                           	fnconf	rparam,??,?,0
     3                           	pagewidth 120
     4                           	opt	flic
     5                           	psect	idataCOMRAM,global,class=CODE,delta=1,noexec
     6                           	psect	smallconst,global,reloc=2,class=SMALLCONST,delta=1,noexec
     7                           	psect	cinit,global,reloc=2,class=CODE,delta=1
     8                           	psect	bssCOMRAM,global,class=COMRAM,space=1,delta=1,lowdata,noexec
     9                           	psect	dataCOMRAM,global,class=COMRAM,space=1,delta=1,lowdata,noexec
    10                           	psect	cstackCOMRAM,global,class=COMRAM,space=1,delta=1,lowdata,noexec
    11                           	psect	text0,global,reloc=2,class=CODE,delta=1
    12                           	psect	text1,global,reloc=2,class=CODE,delta=1
    13                           	psect	text2,global,reloc=2,class=CODE,delta=1
    14                           	psect	text3,global,reloc=2,class=CODE,delta=1
    15                           	psect	text4,global,reloc=2,class=CODE,delta=1
    16                           	psect	text5,global,reloc=2,class=CODE,delta=1
    17                           	psect	text6,global,reloc=2,class=CODE,delta=1
    18                           	psect	text7,global,reloc=2,class=CODE,delta=1
    19                           	psect	text8,global,reloc=2,class=CODE,delta=1
    20                           	psect	text9,global,reloc=2,class=CODE,delta=1
    21                           	psect	text10,global,reloc=2,class=CODE,delta=1
    22                           	psect	text11,global,reloc=2,class=CODE,delta=1
    23                           	psect	text12,global,reloc=2,class=CODE,delta=1
    24                           	psect	text13,global,reloc=2,class=CODE,delta=1
    25                           	psect	text14,global,reloc=2,class=CODE,delta=1
    26                           	psect	text15,global,reloc=2,class=CODE,delta=1
    27                           	psect	text16,global,reloc=2,class=CODE,delta=1
    28                           	psect	text17,global,reloc=2,class=CODE,delta=1
    29                           	psect	text18,global,reloc=2,class=CODE,delta=1
    30                           	psect	intsave_regs,global,class=BIGRAM,space=1,delta=1,noexec
    31                           	psect	rparam,global,class=COMRAM,space=1,delta=1,noexec
    32                           	psect	config,global,abs,ovrld,class=CONFIG,space=4,delta=1,noexec
    33   000000                     
    34                           ; Generated 17/10/2023 GMT
    35                           ; 
    36                           ; Copyright © 2023, Microchip Technology Inc. and its subsidiaries ("Microchip")
    37                           ; All rights reserved.
    38                           ; 
    39                           ; This software is developed by Microchip Technology Inc. and its subsidiaries ("Microch
      +                          ip").
    40                           ; 
    41                           ; Redistribution and use in source and binary forms, with or without modification, are
    42                           ; permitted provided that the following conditions are met:
    43                           ; 
    44                           ;     1. Redistributions of source code must retain the above copyright notice, this lis
      +                          t of
    45                           ;        conditions and the following disclaimer.
    46                           ; 
    47                           ;     2. Redistributions in binary form must reproduce the above copyright notice, this 
      +                          list
    48                           ;        of conditions and the following disclaimer in the documentation and/or other
    49                           ;        materials provided with the distribution. Publication is not required when
    50                           ;        this file is used in an embedded application.
    51                           ; 
    52                           ;     3. Microchip's name may not be used to endorse or promote products derived from th
      +                          is
    53                           ;        software without specific prior written permission.
    54                           ; 
    55                           ; THIS SOFTWARE IS PROVIDED BY MICROCHIP "AS IS" AND ANY EXPRESS OR IMPLIED WARRANTIES,
    56                           ; INCLUDING, BUT NOT LIMITED TO, THE IMPLIED WARRANTIES OF MERCHANTABILITY AND FITNESS F
      +                          OR
    57                           ; PURPOSE ARE DISCLAIMED.  IN NO EVENT SHALL MICROCHIP BE LIABLE FOR ANY DIRECT, INDIREC
      +                          T,
    58                           ; INCIDENTAL, SPECIAL, EXEMPLARY, OR CONSEQUENTIAL DAMAGES (INCLUDING BUT NOT LIMITED TO
    59                           ; PROCUREMENT OF SUBSTITUTE GOODS OR SERVICES; LOSS OF USE, DATA OR PROFITS; OR BUSINESS
    60                           ; INTERRUPTION) HOWSOEVER CAUSED AND ON ANY THEORY OF LIABILITY, WHETHER IN CONTRACT, ST
      +                          RICT
    61                           ; LIABILITY, OR TORT (INCLUDING NEGLIGENCE OR OTHERWISE) ARISING IN ANY WAY OUT OF THE U
      +                          SE OF
    62                           ; THIS SOFTWARE, EVEN IF ADVISED OF THE POSSIBILITY OF SUCH DAMAGE.
    63                           ; 
    64                           ; 
    65                           ; Code-generator required, PIC18F4620 Definitions
    66                           ; 
    67                           ; SFR Addresses
    68   000000                     
    69                           	psect	idataCOMRAM
    70   001C44                     __pidataCOMRAM:
    71                           	callstack 0
    72                           
    73                           ;initializer for _port_registers
    74   001C44  80                 	db	128
    75   001C45  0F                 	db	15
    76   001C46  81                 	db	129
    77   001C47  0F                 	db	15
    78   001C48  82                 	db	130
    79   001C49  0F                 	db	15
    80   001C4A  83                 	db	131
    81   001C4B  0F                 	db	15
    82   001C4C  84                 	db	132
    83   001C4D  0F                 	db	15
    84                           
    85                           ;initializer for _lat_registers
    86   001C4E  89                 	db	137
    87   001C4F  0F                 	db	15
    88   001C50  8A                 	db	138
    89   001C51  0F                 	db	15
    90   001C52  8B                 	db	139
    91   001C53  0F                 	db	15
    92   001C54  8C                 	db	140
    93   001C55  0F                 	db	15
    94   001C56  8D                 	db	141
    95   001C57  0F                 	db	15
    96                           
    97                           ;initializer for _tris_registers
    98   001C58  92                 	db	146
    99   001C59  0F                 	db	15
   100   001C5A  93                 	db	147
   101   001C5B  0F                 	db	15
   102   001C5C  94                 	db	148
   103   001C5D  0F                 	db	15
   104   001C5E  95                 	db	149
   105   001C5F  0F                 	db	15
   106   001C60  96                 	db	150
   107   001C61  0F                 	db	15
   108                           
   109                           ;initializer for _keypad1
   110   001C62  01                 	db	1
   111   001C63  09                 	db	9
   112   001C64  11                 	db	17
   113   001C65  19                 	db	25
   114   001C66  21                 	db	33
   115   001C67  29                 	db	41
   116   001C68  31                 	db	49
   117   001C69  39                 	db	57
   118                           
   119                           ;initializer for _lcd1
   120   001C6A  2B                 	db	43
   121   001C6B  23                 	db	35
   122   001C6C  1B                 	db	27
   123   001C6D  13                 	db	19
   124   001C6E  0B                 	db	11
   125   001C6F  03                 	db	3
   126                           
   127                           ;initializer for _seg1
   128   001C70  82                 	db	130
   129   001C71  8A                 	db	138
   130   001C72  92                 	db	146
   131   001C73  9A                 	db	154
   132   001C74  00                 	db	0
   133                           
   134                           ;initializer for _led1
   135   001C75  80                 	db	128
   136                           
   137                           	psect	smallconst
   138   001000                     __psmallconst:
   139                           	callstack 0
   140   001000  00                 	db	0
   141   001001                     _keypad_values:
   142                           	callstack 0
   143   001001  37                 	db	55
   144   001002  38                 	db	56
   145   001003  39                 	db	57
   146   001004  2F                 	db	47
   147   001005  34                 	db	52
   148   001006  35                 	db	53
   149   001007  36                 	db	54
   150   001008  2A                 	db	42
   151   001009  31                 	db	49
   152   00100A  32                 	db	50
   153   00100B  33                 	db	51
   154   00100C  2D                 	db	45
   155   00100D  23                 	db	35
   156   00100E  30                 	db	48
   157   00100F  3D                 	db	61
   158   001010  2B                 	db	43
   159   001011                     __end_of_keypad_values:
   160                           	callstack 0
   161   000000                     _PORTE	set	3972
   162   000000                     _PORTD	set	3971
   163   000000                     _PORTC	set	3970
   164   000000                     _PORTB	set	3969
   165   000000                     _PORTA	set	3968
   166   000000                     _LATA	set	3977
   167   000000                     _TRISA	set	3986
   168   000000                     _TRISE	set	3990
   169   000000                     _TRISD	set	3989
   170   000000                     _TRISC	set	3988
   171   000000                     _TRISB	set	3987
   172   000000                     _LATE	set	3981
   173   000000                     _LATD	set	3980
   174   000000                     _LATC	set	3979
   175   000000                     _LATB	set	3978
   176   001011  00                 	db	0	; dummy byte at the end
   177   000000                     
   178                           ; #config settings
   179                           
   180                           	psect	cinit
   181   001C0E                     __pcinit:
   182                           	callstack 0
   183   001C0E                     start_initialization:
   184                           	callstack 0
   185   001C0E                     __initialization:
   186                           	callstack 0
   187                           
   188                           ; Initialize objects allocated to COMRAM (50 bytes)
   189                           ; load TBLPTR registers with __pidataCOMRAM
   190   001C0E  0E44               	movlw	low __pidataCOMRAM
   191   001C10  6EF6               	movwf	tblptrl,c
   192   001C12  0E1C               	movlw	high __pidataCOMRAM
   193   001C14  6EF7               	movwf	tblptrh,c
   194   001C16  0E00               	movlw	low (__pidataCOMRAM shr (0+16))
   195   001C18  6EF8               	movwf	tblptru,c
   196   001C1A  EE00  F001         	lfsr	0,__pdataCOMRAM
   197   001C1E  EE10 F032          	lfsr	1,50
   198   001C22                     copy_data0:
   199   001C22  0009               	tblrd		*+
   200   001C24  CFF5 FFEE          	movff	tablat,postinc0
   201   001C28  50E5               	movf	postdec1,w,c
   202   001C2A  50E1               	movf	fsr1l,w,c
   203   001C2C  E1FA               	bnz	copy_data0
   204                           
   205                           ; Clear objects allocated to COMRAM (15 bytes)
   206   001C2E  EE00  F052         	lfsr	0,__pbssCOMRAM
   207   001C32  0E0F               	movlw	15
   208   001C34                     clear_0:
   209   001C34  6AEE               	clrf	postinc0,c
   210   001C36  06E8               	decf	wreg,f,c
   211   001C38  E1FD               	bnz	clear_0
   212   001C3A                     end_of_initialization:
   213                           	callstack 0
   214   001C3A                     __end_of__initialization:
   215                           	callstack 0
   216   001C3A  0E00               	movlw	low (__Lmediumconst shr (0+16))
   217   001C3C  6EF8               	movwf	tblptru,c
   218   001C3E  0100               	movlb	0
   219   001C40  EF86  F00A         	goto	_main	;jump to C main() function
   220                           
   221                           	psect	bssCOMRAM
   222   000052                     __pbssCOMRAM:
   223                           	callstack 0
   224   000052                     relay_turn_off@F3077:
   225                           	callstack 0
   226   000052                     	ds	1
   227   000053                     relay_turn_on@F3072:
   228                           	callstack 0
   229   000053                     	ds	1
   230   000054                     relay_init@F3067:
   231                           	callstack 0
   232   000054                     	ds	1
   233   000055                     led_toggle@F3093:
   234                           	callstack 0
   235   000055                     	ds	1
   236   000056                     led_turn_off@F3088:
   237                           	callstack 0
   238   000056                     	ds	1
   239   000057                     led_turn_on@F3083:
   240                           	callstack 0
   241   000057                     	ds	1
   242   000058                     led_init@F3078:
   243                           	callstack 0
   244   000058                     	ds	1
   245   000059                     dc_motor_stop@F3094:
   246                           	callstack 0
   247   000059                     	ds	1
   248   00005A                     dc_motor_stop@F3092:
   249                           	callstack 0
   250   00005A                     	ds	1
   251   00005B                     dc_motor_move_dir2@F3087:
   252                           	callstack 0
   253   00005B                     	ds	1
   254   00005C                     dc_motor_move_dir2@F3085:
   255                           	callstack 0
   256   00005C                     	ds	1
   257   00005D                     dc_motor_move_dir1@F3080:
   258                           	callstack 0
   259   00005D                     	ds	1
   260   00005E                     dc_motor_move_dir1@F3078:
   261                           	callstack 0
   262   00005E                     	ds	1
   263   00005F                     dc_motor_init@F3073:
   264                           	callstack 0
   265   00005F                     	ds	1
   266   000060                     dc_motor_init@F3071:
   267                           	callstack 0
   268   000060                     	ds	1
   269                           
   270                           	psect	dataCOMRAM
   271   000001                     __pdataCOMRAM:
   272                           	callstack 0
   273   000001                     _port_registers:
   274                           	callstack 0
   275   000001                     	ds	10
   276   00000B                     _lat_registers:
   277                           	callstack 0
   278   00000B                     	ds	10
   279   000015                     _tris_registers:
   280                           	callstack 0
   281   000015                     	ds	10
   282   00001F                     _keypad1:
   283                           	callstack 0
   284   00001F                     	ds	8
   285   000027                     _lcd1:
   286                           	callstack 0
   287   000027                     	ds	6
   288   00002D                     _seg1:
   289                           	callstack 0
   290   00002D                     	ds	5
   291   000032                     _led1:
   292                           	callstack 0
   293   000032                     	ds	1
   294                           
   295                           	psect	cstackCOMRAM
   296   000033                     __pcstackCOMRAM:
   297                           	callstack 0
   298   000033                     gpio_pin_set_direction@pin:
   299                           	callstack 0
   300   000033                     gpio_pin_write@pin:
   301                           	callstack 0
   302   000033                     gpio_pin_read@pin:
   303                           	callstack 0
   304                           
   305                           ; 1 bytes @ 0x0
   306   000033                     	ds	1
   307   000034                     ??_gpio_pin_set_direction:
   308   000034                     gpio_pin_write@logic:
   309                           	callstack 0
   310   000034                     gpio_pin_read@logic:
   311                           	callstack 0
   312                           
   313                           ; 1 bytes @ 0x1
   314   000034                     	ds	1
   315   000035                     ??_gpio_pin_write:
   316   000035                     ??_gpio_pin_read:
   317                           
   318                           ; 1 bytes @ 0x2
   319   000035                     	ds	4
   320   000039                     gpio_pin_set_direction@ret:
   321                           	callstack 0
   322                           
   323                           ; 1 bytes @ 0x6
   324   000039                     	ds	1
   325   00003A                     gpio_pin_write@ret:
   326                           	callstack 0
   327                           
   328                           ; 1 bytes @ 0x7
   329   00003A                     	ds	1
   330   00003B                     seven_seg_write_number@seg:
   331                           	callstack 0
   332   00003B                     lcd_send_4bits@lcd:
   333                           	callstack 0
   334   00003B                     lcd_4bits_send_enable_signal@lcd:
   335                           	callstack 0
   336   00003B                     led_turn_on@led:
   337                           	callstack 0
   338   00003B                     led_turn_off@led:
   339                           	callstack 0
   340   00003B                     gpio_pin_initialize@pin:
   341                           	callstack 0
   342                           
   343                           ; 1 bytes @ 0x8
   344   00003B                     	ds	1
   345   00003C                     ??_gpio_pin_initialize:
   346   00003C                     ??_led_turn_on:
   347   00003C                     ??_led_turn_off:
   348   00003C                     seven_seg_write_number@number:
   349                           	callstack 0
   350   00003C                     lcd_send_4bits@_data_cmd:
   351                           	callstack 0
   352   00003C                     lcd_4bits_send_enable_signal@ret:
   353                           	callstack 0
   354   00003C                     gpio_pin_read@ret:
   355                           	callstack 0
   356                           
   357                           ; 1 bytes @ 0x9
   358   00003C                     	ds	1
   359   00003D                     ??_lcd_send_4bits:
   360   00003D                     seven_seg_write_number@ret:
   361                           	callstack 0
   362   00003D                     keypad_get_value@keypad:
   363                           	callstack 0
   364   00003D                     led_turn_on@pin:
   365                           	callstack 0
   366   00003D                     led_turn_off@pin:
   367                           	callstack 0
   368   00003D                     gpio_pin_initialize@ret:
   369                           	callstack 0
   370                           
   371                           ; 1 bytes @ 0xA
   372   00003D                     	ds	1
   373   00003E                     seven_seg_init@seg:
   374                           	callstack 0
   375   00003E                     keypad_init@keypad:
   376                           	callstack 0
   377   00003E                     keypad_get_value@value:
   378                           	callstack 0
   379   00003E                     led_init@led:
   380                           	callstack 0
   381                           
   382                           ; 1 bytes @ 0xB
   383   00003E                     	ds	1
   384   00003F                     ??_keypad_get_value:
   385   00003F                     ??_led_init:
   386   00003F                     seven_seg_init@ret:
   387                           	callstack 0
   388   00003F                     lcd_send_4bits@ret:
   389                           	callstack 0
   390   00003F                     keypad_init@columns_counter:
   391                           	callstack 0
   392                           
   393                           ; 1 bytes @ 0xC
   394   00003F                     	ds	1
   395   000040                     lcd_send_4bits@l_pin_counter:
   396                           	callstack 0
   397   000040                     keypad_init@rows_counter:
   398                           	callstack 0
   399   000040                     keypad_get_value@ret:
   400                           	callstack 0
   401   000040                     led_init@pin:
   402                           	callstack 0
   403                           
   404                           ; 1 bytes @ 0xD
   405   000040                     	ds	1
   406   000041                     lcd_4bit_send_cmd@lcd:
   407                           	callstack 0
   408   000041                     lcd_4bit_send_char@lcd:
   409                           	callstack 0
   410   000041                     keypad_get_value@column_logic:
   411                           	callstack 0
   412                           
   413                           ; 1 bytes @ 0xE
   414   000041                     	ds	1
   415   000042                     lcd_4bit_send_cmd@cmd:
   416                           	callstack 0
   417   000042                     lcd_4bit_send_char@data:
   418                           	callstack 0
   419   000042                     keypad_get_value@columns_counter:
   420                           	callstack 0
   421                           
   422                           ; 1 bytes @ 0xF
   423   000042                     	ds	1
   424   000043                     lcd_4bit_send_cmd@ret:
   425                           	callstack 0
   426   000043                     lcd_4bit_send_char@ret:
   427                           	callstack 0
   428   000043                     keypad_get_value@rows_counter:
   429                           	callstack 0
   430                           
   431                           ; 1 bytes @ 0x10
   432   000043                     	ds	1
   433   000044                     lcd_4bit_init@lcd:
   434                           	callstack 0
   435   000044                     lcd_4bit_set_cursor@lcd:
   436                           	callstack 0
   437                           
   438                           ; 1 bytes @ 0x11
   439   000044                     	ds	1
   440   000045                     ??_lcd_4bit_init:
   441   000045                     lcd_4bit_set_cursor@row:
   442                           	callstack 0
   443                           
   444                           ; 1 bytes @ 0x12
   445   000045                     	ds	1
   446   000046                     lcd_4bit_init@ret:
   447                           	callstack 0
   448   000046                     lcd_4bit_set_cursor@column:
   449                           	callstack 0
   450                           
   451                           ; 1 bytes @ 0x13
   452   000046                     	ds	1
   453   000047                     lcd_4bit_init@pins_counter:
   454                           	callstack 0
   455   000047                     lcd_4bit_set_cursor@ret:
   456                           	callstack 0
   457                           
   458                           ; 1 bytes @ 0x14
   459   000047                     	ds	1
   460   000048                     lcd_4bit_send_char_pos@lcd:
   461                           	callstack 0
   462                           
   463                           ; 1 bytes @ 0x15
   464   000048                     	ds	1
   465   000049                     lcd_4bit_send_char_pos@data:
   466                           	callstack 0
   467                           
   468                           ; 1 bytes @ 0x16
   469   000049                     	ds	1
   470   00004A                     lcd_4bit_send_char_pos@row:
   471                           	callstack 0
   472                           
   473                           ; 1 bytes @ 0x17
   474   00004A                     	ds	1
   475   00004B                     lcd_4bit_send_char_pos@column:
   476                           	callstack 0
   477                           
   478                           ; 1 bytes @ 0x18
   479   00004B                     	ds	1
   480   00004C                     lcd_4bit_send_char_pos@ret:
   481                           	callstack 0
   482                           
   483                           ; 1 bytes @ 0x19
   484   00004C                     	ds	1
   485   00004D                     ??_main:
   486                           
   487                           ; 1 bytes @ 0x1A
   488   00004D                     	ds	2
   489   00004F                     main@i:
   490                           	callstack 0
   491                           
   492                           ; 2 bytes @ 0x1C
   493   00004F                     	ds	2
   494   000051                     main@val:
   495                           	callstack 0
   496                           
   497                           ; 1 bytes @ 0x1E
   498   000051                     	ds	1
   499                           
   500 ;;
   501 ;;Main: autosize = 0, tempsize = 2, incstack = 0, save=0
   502 ;;
   503 ;; *************** function _main *****************
   504 ;; Defined at:
   505 ;;		line 86 in file "main.c"
   506 ;; Parameters:    Size  Location     Type
   507 ;;		None
   508 ;; Auto vars:     Size  Location     Type
   509 ;;  i               2   28[COMRAM] int 
   510 ;;  val             1   30[COMRAM] unsigned char 
   511 ;;  ret             1    0        unsigned char 
   512 ;; Return value:  Size  Location     Type
   513 ;;                  2  408[None  ] int 
   514 ;; Registers used:
   515 ;;		wreg, fsr1l, fsr1h, fsr2l, fsr2h, status,2, status,0, tblptrl, tblptrh, tblptru, prodl, prodh, cstack
   516 ;; Tracked objects:
   517 ;;		On entry : 0/0
   518 ;;		On exit  : 0/0
   519 ;;		Unchanged: 0/0
   520 ;; Data sizes:     COMRAM   BANK0   BANK1   BANK2   BANK3   BANK4   BANK5   BANK6   BANK7   BANK8   BANK9  BANK10  BANK1
      +1  BANK12  BANK13  BANK14  BANK15
   521 ;;      Params:         0       0       0       0       0       0       0       0       0       0       0       0       
      +0       0       0       0       0
   522 ;;      Locals:         3       0       0       0       0       0       0       0       0       0       0       0       
      +0       0       0       0       0
   523 ;;      Temps:          2       0       0       0       0       0       0       0       0       0       0       0       
      +0       0       0       0       0
   524 ;;      Totals:         5       0       0       0       0       0       0       0       0       0       0       0       
      +0       0       0       0       0
   525 ;;Total ram usage:        5 bytes
   526 ;; Hardware stack levels required when called: 5
   527 ;; This function calls:
   528 ;;		_keypad_get_value
   529 ;;		_keypad_init
   530 ;;		_lcd_4bit_init
   531 ;;		_lcd_4bit_send_char
   532 ;;		_lcd_4bit_send_char_pos
   533 ;;		_led_init
   534 ;;		_led_turn_off
   535 ;;		_led_turn_on
   536 ;;		_seven_seg_init
   537 ;;		_seven_seg_write_number
   538 ;; This function is called by:
   539 ;;		Startup code after reset
   540 ;; This function uses a non-reentrant model
   541 ;;
   542                           
   543                           	psect	text0
   544   00150C                     __ptext0:
   545                           	callstack 0
   546   00150C                     _main:
   547                           	callstack 26
   548   00150C                     
   549                           ;main.c: 87:     led_init(&led1);
   550   00150C  0E32               	movlw	low _led1
   551   00150E  6E3E               	movwf	led_init@led^0,c
   552   001510  EC6D  F00B         	call	_led_init	;wreg free
   553                           
   554                           ;main.c: 88:     seven_seg_init(&seg1);
   555   001514  0E2D               	movlw	low _seg1
   556   001516  6E3E               	movwf	seven_seg_init@seg^0,c
   557   001518  ECAA  F00D         	call	_seven_seg_init	;wreg free
   558                           
   559                           ;main.c: 90:     seven_seg_write_number(&seg1, 3);
   560   00151C  0E2D               	movlw	low _seg1
   561   00151E  6E3B               	movwf	seven_seg_write_number@seg^0,c
   562   001520  0E03               	movlw	3
   563   001522  6E3C               	movwf	seven_seg_write_number@number^0,c
   564   001524  EC48  F00C         	call	_seven_seg_write_number	;wreg free
   565                           
   566                           ;main.c: 92:     keypad_init(&keypad1);
   567   001528  0E1F               	movlw	low _keypad1
   568   00152A  6E3E               	movwf	keypad_init@keypad^0,c
   569   00152C  EC07  F00C         	call	_keypad_init	;wreg free
   570                           
   571                           ;main.c: 94:     lcd_4bit_init(&lcd1);
   572   001530  0E27               	movlw	low _lcd1
   573   001532  6E44               	movwf	lcd_4bit_init@lcd^0,c
   574   001534  EC63  F009         	call	_lcd_4bit_init	;wreg free
   575                           
   576                           ;main.c: 97:     lcd_4bit_send_char(&lcd1,'A');
   577   001538  0E27               	movlw	low _lcd1
   578   00153A  6E41               	movwf	lcd_4bit_send_char@lcd^0,c
   579   00153C  0E41               	movlw	65
   580   00153E  6E42               	movwf	lcd_4bit_send_char@data^0,c
   581   001540  EC4E  F00D         	call	_lcd_4bit_send_char	;wreg free
   582                           
   583                           ;main.c: 99:     lcd_4bit_send_char_pos(&lcd1, 'C', 1, 2);
   584   001544  0E27               	movlw	low _lcd1
   585   001546  6E48               	movwf	lcd_4bit_send_char_pos@lcd^0,c
   586   001548  0E43               	movlw	67
   587   00154A  6E49               	movwf	lcd_4bit_send_char_pos@data^0,c
   588   00154C  0E01               	movlw	1
   589   00154E  6E4A               	movwf	lcd_4bit_send_char_pos@row^0,c
   590   001550  0E02               	movlw	2
   591   001552  6E4B               	movwf	lcd_4bit_send_char_pos@column^0,c
   592   001554  ECCB  F00D         	call	_lcd_4bit_send_char_pos	;wreg free
   593   001558                     
   594                           ;main.c: 100:     uint8 val = 0xFFU;
   595   001558  6851               	setf	main@val^0,c
   596   00155A                     l2334:
   597                           
   598                           ;main.c: 105:         led_turn_on(&led1);
   599   00155A  0E32               	movlw	low _led1
   600   00155C  6E3B               	movwf	led_turn_on@led^0,c
   601   00155E  EC82  F00C         	call	_led_turn_on	;wreg free
   602   001562                     
   603                           ;main.c: 106:         _delay((unsigned long)((1000)*(4000000UL/4000.0)));
   604   001562  0E06               	movlw	6
   605   001564  6E4E               	movwf	(??_main+1)^0,c
   606   001566  0E13               	movlw	19
   607   001568  6E4D               	movwf	??_main^0,c
   608   00156A  0EAE               	movlw	174
   609   00156C                     u1627:
   610   00156C  2EE8               	decfsz	wreg,f,c
   611   00156E  D7FE               	bra	u1627
   612   001570  2E4D               	decfsz	??_main^0,f,c
   613   001572  D7FC               	bra	u1627
   614   001574  2E4E               	decfsz	(??_main+1)^0,f,c
   615   001576  D7FA               	bra	u1627
   616   001578                     
   617                           ;main.c: 107:         led_turn_off(&led1);
   618   001578  0E32               	movlw	low _led1
   619   00157A  6E3B               	movwf	led_turn_off@led^0,c
   620   00157C  ECBB  F00C         	call	_led_turn_off	;wreg free
   621   001580                     
   622                           ;main.c: 108:         _delay((unsigned long)((1000)*(4000000UL/4000.0)));
   623   001580  0E06               	movlw	6
   624   001582  6E4E               	movwf	(??_main+1)^0,c
   625   001584  0E13               	movlw	19
   626   001586  6E4D               	movwf	??_main^0,c
   627   001588  0EAE               	movlw	174
   628   00158A                     u1637:
   629   00158A  2EE8               	decfsz	wreg,f,c
   630   00158C  D7FE               	bra	u1637
   631   00158E  2E4D               	decfsz	??_main^0,f,c
   632   001590  D7FC               	bra	u1637
   633   001592  2E4E               	decfsz	(??_main+1)^0,f,c
   634   001594  D7FA               	bra	u1637
   635   001596  0E1F               	movlw	low _keypad1
   636   001598  6E3D               	movwf	keypad_get_value@keypad^0,c
   637   00159A  0E51               	movlw	low main@val
   638   00159C  6E3E               	movwf	keypad_get_value@value^0,c
   639   00159E  ECBA  F008         	call	_keypad_get_value	;wreg free
   640   0015A2                     
   641                           ;main.c: 110:         if (0xFFU != val) {
   642   0015A2  2851               	incf	main@val^0,w,c
   643   0015A4  B4D8               	btfsc	status,2,c
   644   0015A6  EFD7  F00A         	goto	u1601
   645   0015AA  EFD9  F00A         	goto	u1600
   646   0015AE                     u1601:
   647   0015AE  EFAD  F00A         	goto	l2334
   648   0015B2                     u1600:
   649   0015B2                     
   650                           ;main.c: 111:             for (int i = 0; i < 5; i++) {
   651   0015B2  0E00               	movlw	0
   652   0015B4  6E50               	movwf	(main@i+1)^0,c
   653   0015B6  0E00               	movlw	0
   654   0015B8  6E4F               	movwf	main@i^0,c
   655   0015BA                     l2352:
   656                           
   657                           ;main.c: 112:                 led_turn_on(&led1);
   658   0015BA  0E32               	movlw	low _led1
   659   0015BC  6E3B               	movwf	led_turn_on@led^0,c
   660   0015BE  EC82  F00C         	call	_led_turn_on	;wreg free
   661   0015C2                     
   662                           ;main.c: 113:                 _delay((unsigned long)((100)*(4000000UL/4000.0)));
   663   0015C2  0E82               	movlw	130
   664   0015C4  6E4D               	movwf	??_main^0,c
   665   0015C6  0EDE               	movlw	222
   666   0015C8                     u1647:
   667   0015C8  2EE8               	decfsz	wreg,f,c
   668   0015CA  D7FE               	bra	u1647
   669   0015CC  2E4D               	decfsz	??_main^0,f,c
   670   0015CE  D7FC               	bra	u1647
   671   0015D0                     
   672                           ;main.c: 114:                 led_turn_off(&led1);
   673   0015D0  0E32               	movlw	low _led1
   674   0015D2  6E3B               	movwf	led_turn_off@led^0,c
   675   0015D4  ECBB  F00C         	call	_led_turn_off	;wreg free
   676                           
   677                           ;main.c: 115:                 _delay((unsigned long)((100)*(4000000UL/4000.0)));
   678   0015D8  0E82               	movlw	130
   679   0015DA  6E4D               	movwf	??_main^0,c
   680   0015DC  0EDE               	movlw	222
   681   0015DE                     u1657:
   682   0015DE  2EE8               	decfsz	wreg,f,c
   683   0015E0  D7FE               	bra	u1657
   684   0015E2  2E4D               	decfsz	??_main^0,f,c
   685   0015E4  D7FC               	bra	u1657
   686   0015E6                     
   687                           ;main.c: 116:             }
   688   0015E6  4A4F               	infsnz	main@i^0,f,c
   689   0015E8  2A50               	incf	(main@i+1)^0,f,c
   690   0015EA  BE50               	btfsc	(main@i+1)^0,7,c
   691   0015EC  EF01  F00B         	goto	u1611
   692   0015F0  5050               	movf	(main@i+1)^0,w,c
   693   0015F2  E109               	bnz	u1610
   694   0015F4  0E05               	movlw	5
   695   0015F6  5C4F               	subwf	main@i^0,w,c
   696   0015F8  A0D8               	btfss	status,0,c
   697   0015FA  EF01  F00B         	goto	u1611
   698   0015FE  EF03  F00B         	goto	u1610
   699   001602                     u1611:
   700   001602  EFDD  F00A         	goto	l2352
   701   001606                     u1610:
   702   001606  EFAD  F00A         	goto	l2334
   703   00160A  EF00  F000         	goto	start
   704   00160E                     __end_of_main:
   705                           	callstack 0
   706                           
   707 ;; *************** function _seven_seg_write_number *****************
   708 ;; Defined at:
   709 ;;		line 54 in file "ECU_Layer/7_Seg/seven_seg.c"
   710 ;; Parameters:    Size  Location     Type
   711 ;;  seg             1    8[COMRAM] PTR const struct .
   712 ;;		 -> seg1(5), 
   713 ;;  number          1    9[COMRAM] unsigned char 
   714 ;; Auto vars:     Size  Location     Type
   715 ;;  ret             1   10[COMRAM] unsigned char 
   716 ;; Return value:  Size  Location     Type
   717 ;;                  1    wreg      unsigned char 
   718 ;; Registers used:
   719 ;;		wreg, fsr2l, fsr2h, status,2, status,0, prodl, prodh, cstack
   720 ;; Tracked objects:
   721 ;;		On entry : 0/0
   722 ;;		On exit  : 0/0
   723 ;;		Unchanged: 0/0
   724 ;; Data sizes:     COMRAM   BANK0   BANK1   BANK2   BANK3   BANK4   BANK5   BANK6   BANK7   BANK8   BANK9  BANK10  BANK1
      +1  BANK12  BANK13  BANK14  BANK15
   725 ;;      Params:         2       0       0       0       0       0       0       0       0       0       0       0       
      +0       0       0       0       0
   726 ;;      Locals:         1       0       0       0       0       0       0       0       0       0       0       0       
      +0       0       0       0       0
   727 ;;      Temps:          0       0       0       0       0       0       0       0       0       0       0       0       
      +0       0       0       0       0
   728 ;;      Totals:         3       0       0       0       0       0       0       0       0       0       0       0       
      +0       0       0       0       0
   729 ;;Total ram usage:        3 bytes
   730 ;; Hardware stack levels used: 1
   731 ;; Hardware stack levels required when called: 1
   732 ;; This function calls:
   733 ;;		_gpio_pin_write
   734 ;; This function is called by:
   735 ;;		_main
   736 ;; This function uses a non-reentrant model
   737 ;;
   738                           
   739                           	psect	text1
   740   001890                     __ptext1:
   741                           	callstack 0
   742   001890                     _seven_seg_write_number:
   743                           	callstack 29
   744   001890                     
   745                           ;ECU_Layer/7_Seg/seven_seg.c: 57:     if (((void*)0) == seg || number > 9) {
   746   001890  503B               	movf	seven_seg_write_number@seg^0,w,c
   747   001892  B4D8               	btfsc	status,2,c
   748   001894  EF4E  F00C         	goto	u1141
   749   001898  EF50  F00C         	goto	u1140
   750   00189C                     u1141:
   751   00189C  EF58  F00C         	goto	l1928
   752   0018A0                     u1140:
   753   0018A0  0E09               	movlw	9
   754   0018A2  643C               	cpfsgt	seven_seg_write_number@number^0,c
   755   0018A4  EF56  F00C         	goto	u1151
   756   0018A8  EF58  F00C         	goto	u1150
   757   0018AC                     u1151:
   758   0018AC  EF5A  F00C         	goto	l1930
   759   0018B0                     u1150:
   760   0018B0                     l1928:
   761                           
   762                           ;ECU_Layer/7_Seg/seven_seg.c: 59:     } else {
   763   0018B0  EF81  F00C         	goto	l16
   764   0018B4                     l1930:
   765                           
   766                           ;ECU_Layer/7_Seg/seven_seg.c: 60:         ret = gpio_pin_write(&(seg->seg_pins[0]), numb
      +                          er & 0x01);
   767   0018B4  C03B  F033         	movff	seven_seg_write_number@seg,gpio_pin_write@pin
   768   0018B8  503C               	movf	seven_seg_write_number@number^0,w,c
   769   0018BA  0B01               	andlw	1
   770   0018BC  6E34               	movwf	gpio_pin_write@logic^0,c
   771   0018BE  EC09  F008         	call	_gpio_pin_write	;wreg free
   772   0018C2  6E3D               	movwf	seven_seg_write_number@ret^0,c
   773                           
   774                           ;ECU_Layer/7_Seg/seven_seg.c: 61:         ret = gpio_pin_write(&(seg->seg_pins[1]), numb
      +                          er >> 1 & 0x01);
   775   0018C4  283B               	incf	seven_seg_write_number@seg^0,w,c
   776   0018C6  6E33               	movwf	gpio_pin_write@pin^0,c
   777   0018C8  90D8               	bcf	status,0,c
   778   0018CA  303C               	rrcf	seven_seg_write_number@number^0,w,c
   779   0018CC  0B01               	andlw	1
   780   0018CE  6E34               	movwf	gpio_pin_write@logic^0,c
   781   0018D0  EC09  F008         	call	_gpio_pin_write	;wreg free
   782   0018D4  6E3D               	movwf	seven_seg_write_number@ret^0,c
   783                           
   784                           ;ECU_Layer/7_Seg/seven_seg.c: 62:         ret = gpio_pin_write(&(seg->seg_pins[2]), numb
      +                          er >> 2 & 0x01);
   785   0018D6  503B               	movf	seven_seg_write_number@seg^0,w,c
   786   0018D8  0F02               	addlw	2
   787   0018DA  6E33               	movwf	gpio_pin_write@pin^0,c
   788   0018DC  403C               	rrncf	seven_seg_write_number@number^0,w,c
   789   0018DE  42E8               	rrncf	wreg,f,c
   790   0018E0  0B3F               	andlw	63
   791   0018E2  0B01               	andlw	1
   792   0018E4  6E34               	movwf	gpio_pin_write@logic^0,c
   793   0018E6  EC09  F008         	call	_gpio_pin_write	;wreg free
   794   0018EA  6E3D               	movwf	seven_seg_write_number@ret^0,c
   795                           
   796                           ;ECU_Layer/7_Seg/seven_seg.c: 63:         ret = gpio_pin_write(&(seg->seg_pins[3]), numb
      +                          er >> 3 & 0x01);
   797   0018EC  503B               	movf	seven_seg_write_number@seg^0,w,c
   798   0018EE  0F03               	addlw	3
   799   0018F0  6E33               	movwf	gpio_pin_write@pin^0,c
   800   0018F2  383C               	swapf	seven_seg_write_number@number^0,w,c
   801   0018F4  46E8               	rlncf	wreg,f,c
   802   0018F6  0B1F               	andlw	31
   803   0018F8  0B01               	andlw	1
   804   0018FA  6E34               	movwf	gpio_pin_write@logic^0,c
   805   0018FC  EC09  F008         	call	_gpio_pin_write	;wreg free
   806   001900  6E3D               	movwf	seven_seg_write_number@ret^0,c
   807   001902                     l16:
   808   001902  0012               	return		;funcret
   809   001904                     __end_of_seven_seg_write_number:
   810                           	callstack 0
   811                           
   812 ;; *************** function _seven_seg_init *****************
   813 ;; Defined at:
   814 ;;		line 30 in file "ECU_Layer/7_Seg/seven_seg.c"
   815 ;; Parameters:    Size  Location     Type
   816 ;;  seg             1   11[COMRAM] PTR const struct .
   817 ;;		 -> seg1(5), 
   818 ;; Auto vars:     Size  Location     Type
   819 ;;  ret             1   12[COMRAM] unsigned char 
   820 ;; Return value:  Size  Location     Type
   821 ;;                  1    wreg      unsigned char 
   822 ;; Registers used:
   823 ;;		wreg, fsr2l, fsr2h, status,2, status,0, prodl, prodh, cstack
   824 ;; Tracked objects:
   825 ;;		On entry : 0/0
   826 ;;		On exit  : 0/0
   827 ;;		Unchanged: 0/0
   828 ;; Data sizes:     COMRAM   BANK0   BANK1   BANK2   BANK3   BANK4   BANK5   BANK6   BANK7   BANK8   BANK9  BANK10  BANK1
      +1  BANK12  BANK13  BANK14  BANK15
   829 ;;      Params:         1       0       0       0       0       0       0       0       0       0       0       0       
      +0       0       0       0       0
   830 ;;      Locals:         1       0       0       0       0       0       0       0       0       0       0       0       
      +0       0       0       0       0
   831 ;;      Temps:          0       0       0       0       0       0       0       0       0       0       0       0       
      +0       0       0       0       0
   832 ;;      Totals:         2       0       0       0       0       0       0       0       0       0       0       0       
      +0       0       0       0       0
   833 ;;Total ram usage:        2 bytes
   834 ;; Hardware stack levels used: 1
   835 ;; Hardware stack levels required when called: 2
   836 ;; This function calls:
   837 ;;		_gpio_pin_initialize
   838 ;; This function is called by:
   839 ;;		_main
   840 ;; This function uses a non-reentrant model
   841 ;;
   842                           
   843                           	psect	text2
   844   001B54                     __ptext2:
   845                           	callstack 0
   846   001B54                     _seven_seg_init:
   847                           	callstack 28
   848   001B54                     
   849                           ;ECU_Layer/7_Seg/seven_seg.c: 33:     if (((void*)0) == seg) {
   850   001B54  503E               	movf	seven_seg_init@seg^0,w,c
   851   001B56  A4D8               	btfss	status,2,c
   852   001B58  EFB0  F00D         	goto	u1131
   853   001B5C  EFB2  F00D         	goto	u1130
   854   001B60                     u1131:
   855   001B60  EFB4  F00D         	goto	l1920
   856   001B64                     u1130:
   857   001B64                     
   858                           ;ECU_Layer/7_Seg/seven_seg.c: 35:     } else {
   859   001B64  EFCA  F00D         	goto	l9
   860   001B68                     l1920:
   861                           
   862                           ;ECU_Layer/7_Seg/seven_seg.c: 36:         ret = gpio_pin_initialize(&(seg->seg_pins[0]))
      +                          ;
   863   001B68  C03E  F03B         	movff	seven_seg_init@seg,gpio_pin_initialize@pin
   864   001B6C  EC1F  F00D         	call	_gpio_pin_initialize	;wreg free
   865   001B70  6E3F               	movwf	seven_seg_init@ret^0,c
   866                           
   867                           ;ECU_Layer/7_Seg/seven_seg.c: 37:         ret = gpio_pin_initialize(&(seg->seg_pins[1]))
      +                          ;
   868   001B72  283E               	incf	seven_seg_init@seg^0,w,c
   869   001B74  6E3B               	movwf	gpio_pin_initialize@pin^0,c
   870   001B76  EC1F  F00D         	call	_gpio_pin_initialize	;wreg free
   871   001B7A  6E3F               	movwf	seven_seg_init@ret^0,c
   872                           
   873                           ;ECU_Layer/7_Seg/seven_seg.c: 38:         ret = gpio_pin_initialize(&(seg->seg_pins[2]))
      +                          ;
   874   001B7C  503E               	movf	seven_seg_init@seg^0,w,c
   875   001B7E  0F02               	addlw	2
   876   001B80  6E3B               	movwf	gpio_pin_initialize@pin^0,c
   877   001B82  EC1F  F00D         	call	_gpio_pin_initialize	;wreg free
   878   001B86  6E3F               	movwf	seven_seg_init@ret^0,c
   879                           
   880                           ;ECU_Layer/7_Seg/seven_seg.c: 39:         ret = gpio_pin_initialize(&(seg->seg_pins[3]))
      +                          ;
   881   001B88  503E               	movf	seven_seg_init@seg^0,w,c
   882   001B8A  0F03               	addlw	3
   883   001B8C  6E3B               	movwf	gpio_pin_initialize@pin^0,c
   884   001B8E  EC1F  F00D         	call	_gpio_pin_initialize	;wreg free
   885   001B92  6E3F               	movwf	seven_seg_init@ret^0,c
   886   001B94                     l9:
   887   001B94  0012               	return		;funcret
   888   001B96                     __end_of_seven_seg_init:
   889                           	callstack 0
   890                           
   891 ;; *************** function _led_turn_on *****************
   892 ;; Defined at:
   893 ;;		line 56 in file "ECU_Layer/LED/led.c"
   894 ;; Parameters:    Size  Location     Type
   895 ;;  led             1    8[COMRAM] PTR const struct .
   896 ;;		 -> led1(1), 
   897 ;; Auto vars:     Size  Location     Type
   898 ;;  pin             1   10[COMRAM] struct .
   899 ;;  ret             1    0        unsigned char 
   900 ;; Return value:  Size  Location     Type
   901 ;;                  1    wreg      unsigned char 
   902 ;; Registers used:
   903 ;;		wreg, fsr2l, fsr2h, status,2, status,0, prodl, prodh, cstack
   904 ;; Tracked objects:
   905 ;;		On entry : 0/0
   906 ;;		On exit  : 0/0
   907 ;;		Unchanged: 0/0
   908 ;; Data sizes:     COMRAM   BANK0   BANK1   BANK2   BANK3   BANK4   BANK5   BANK6   BANK7   BANK8   BANK9  BANK10  BANK1
      +1  BANK12  BANK13  BANK14  BANK15
   909 ;;      Params:         1       0       0       0       0       0       0       0       0       0       0       0       
      +0       0       0       0       0
   910 ;;      Locals:         1       0       0       0       0       0       0       0       0       0       0       0       
      +0       0       0       0       0
   911 ;;      Temps:          1       0       0       0       0       0       0       0       0       0       0       0       
      +0       0       0       0       0
   912 ;;      Totals:         3       0       0       0       0       0       0       0       0       0       0       0       
      +0       0       0       0       0
   913 ;;Total ram usage:        3 bytes
   914 ;; Hardware stack levels used: 1
   915 ;; Hardware stack levels required when called: 1
   916 ;; This function calls:
   917 ;;		_gpio_pin_write
   918 ;; This function is called by:
   919 ;;		_main
   920 ;; This function uses a non-reentrant model
   921 ;;
   922                           
   923                           	psect	text3
   924   001904                     __ptext3:
   925                           	callstack 0
   926   001904                     _led_turn_on:
   927                           	callstack 29
   928   001904                     
   929                           ;ECU_Layer/LED/led.c: 59:     if (((void*)0) == led) {
   930   001904  503B               	movf	led_turn_on@led^0,w,c
   931   001906  A4D8               	btfss	status,2,c
   932   001908  EF88  F00C         	goto	u1381
   933   00190C  EF8A  F00C         	goto	u1380
   934   001910                     u1381:
   935   001910  EF8C  F00C         	goto	l219
   936   001914                     u1380:
   937   001914                     
   938                           ;ECU_Layer/LED/led.c: 61:     } else {
   939   001914  EFBA  F00C         	goto	l223
   940   001918                     l219:
   941                           
   942                           ;ECU_Layer/LED/led.c: 62:         pin_config_t pin ={
   943   001918  C057  F03D         	movff	led_turn_on@F3083,led_turn_on@pin
   944   00191C  503B               	movf	led_turn_on@led^0,w,c
   945   00191E  6ED9               	movwf	fsr2l,c
   946   001920  6ADA               	clrf	fsr2h,c
   947   001922  50DF               	movf	223,w,c
   948   001924  0B07               	andlw	7
   949   001926  6E3C               	movwf	??_led_turn_on^0,c
   950   001928  503D               	movf	led_turn_on@pin^0,w,c
   951   00192A  183C               	xorwf	??_led_turn_on^0,w,c
   952   00192C  0BF8               	andlw	-8
   953   00192E  183C               	xorwf	??_led_turn_on^0,w,c
   954   001930  6E3D               	movwf	led_turn_on@pin^0,c
   955   001932  503B               	movf	led_turn_on@led^0,w,c
   956   001934  6ED9               	movwf	fsr2l,c
   957   001936  6ADA               	clrf	fsr2h,c
   958   001938  30DF               	rrcf	223,w,c
   959   00193A  32E8               	rrcf	wreg,f,c
   960   00193C  32E8               	rrcf	wreg,f,c
   961   00193E  0B07               	andlw	7
   962   001940  6E3C               	movwf	??_led_turn_on^0,c
   963   001942  463C               	rlncf	??_led_turn_on^0,f,c
   964   001944  463C               	rlncf	??_led_turn_on^0,f,c
   965   001946  463C               	rlncf	??_led_turn_on^0,f,c
   966   001948  503D               	movf	led_turn_on@pin^0,w,c
   967   00194A  183C               	xorwf	??_led_turn_on^0,w,c
   968   00194C  0BC7               	andlw	-57
   969   00194E  183C               	xorwf	??_led_turn_on^0,w,c
   970   001950  6E3D               	movwf	led_turn_on@pin^0,c
   971   001952  0E3D               	movlw	low led_turn_on@pin
   972   001954  6E33               	movwf	gpio_pin_write@pin^0,c
   973   001956  503B               	movf	led_turn_on@led^0,w,c
   974   001958  6ED9               	movwf	fsr2l,c
   975   00195A  6ADA               	clrf	fsr2h,c
   976   00195C  ACDF               	btfss	indf2,6,c
   977   00195E  EFB3  F00C         	goto	u1391
   978   001962  EFB6  F00C         	goto	u1390
   979   001966                     u1391:
   980   001966  0E01               	movlw	1
   981   001968  EFB7  F00C         	goto	u1396
   982   00196C                     u1390:
   983   00196C  0E00               	movlw	0
   984   00196E                     u1396:
   985   00196E  6E34               	movwf	gpio_pin_write@logic^0,c
   986   001970  EC09  F008         	call	_gpio_pin_write	;wreg free
   987   001974                     l223:
   988   001974  0012               	return		;funcret
   989   001976                     __end_of_led_turn_on:
   990                           	callstack 0
   991                           
   992 ;; *************** function _led_turn_off *****************
   993 ;; Defined at:
   994 ;;		line 80 in file "ECU_Layer/LED/led.c"
   995 ;; Parameters:    Size  Location     Type
   996 ;;  led             1    8[COMRAM] PTR const struct .
   997 ;;		 -> led1(1), 
   998 ;; Auto vars:     Size  Location     Type
   999 ;;  pin             1   10[COMRAM] struct .
  1000 ;;  ret             1    0        unsigned char 
  1001 ;; Return value:  Size  Location     Type
  1002 ;;                  1    wreg      unsigned char 
  1003 ;; Registers used:
  1004 ;;		wreg, fsr2l, fsr2h, status,2, status,0, prodl, prodh, cstack
  1005 ;; Tracked objects:
  1006 ;;		On entry : 0/0
  1007 ;;		On exit  : 0/0
  1008 ;;		Unchanged: 0/0
  1009 ;; Data sizes:     COMRAM   BANK0   BANK1   BANK2   BANK3   BANK4   BANK5   BANK6   BANK7   BANK8   BANK9  BANK10  BANK1
      +1  BANK12  BANK13  BANK14  BANK15
  1010 ;;      Params:         1       0       0       0       0       0       0       0       0       0       0       0       
      +0       0       0       0       0
  1011 ;;      Locals:         1       0       0       0       0       0       0       0       0       0       0       0       
      +0       0       0       0       0
  1012 ;;      Temps:          1       0       0       0       0       0       0       0       0       0       0       0       
      +0       0       0       0       0
  1013 ;;      Totals:         3       0       0       0       0       0       0       0       0       0       0       0       
      +0       0       0       0       0
  1014 ;;Total ram usage:        3 bytes
  1015 ;; Hardware stack levels used: 1
  1016 ;; Hardware stack levels required when called: 1
  1017 ;; This function calls:
  1018 ;;		_gpio_pin_write
  1019 ;; This function is called by:
  1020 ;;		_main
  1021 ;; This function uses a non-reentrant model
  1022 ;;
  1023                           
  1024                           	psect	text4
  1025   001976                     __ptext4:
  1026                           	callstack 0
  1027   001976                     _led_turn_off:
  1028                           	callstack 29
  1029   001976                     
  1030                           ;ECU_Layer/LED/led.c: 83:     if (((void*)0) == led) {
  1031   001976  503B               	movf	led_turn_off@led^0,w,c
  1032   001978  A4D8               	btfss	status,2,c
  1033   00197A  EFC1  F00C         	goto	u1401
  1034   00197E  EFC3  F00C         	goto	u1400
  1035   001982                     u1401:
  1036   001982  EFC5  F00C         	goto	l226
  1037   001986                     u1400:
  1038   001986                     
  1039                           ;ECU_Layer/LED/led.c: 85:     } else {
  1040   001986  EFED  F00C         	goto	l230
  1041   00198A                     l226:
  1042                           
  1043                           ;ECU_Layer/LED/led.c: 86:         pin_config_t pin ={
  1044   00198A  C056  F03D         	movff	led_turn_off@F3088,led_turn_off@pin
  1045   00198E  503B               	movf	led_turn_off@led^0,w,c
  1046   001990  6ED9               	movwf	fsr2l,c
  1047   001992  6ADA               	clrf	fsr2h,c
  1048   001994  50DF               	movf	223,w,c
  1049   001996  0B07               	andlw	7
  1050   001998  6E3C               	movwf	??_led_turn_off^0,c
  1051   00199A  503D               	movf	led_turn_off@pin^0,w,c
  1052   00199C  183C               	xorwf	??_led_turn_off^0,w,c
  1053   00199E  0BF8               	andlw	-8
  1054   0019A0  183C               	xorwf	??_led_turn_off^0,w,c
  1055   0019A2  6E3D               	movwf	led_turn_off@pin^0,c
  1056   0019A4  503B               	movf	led_turn_off@led^0,w,c
  1057   0019A6  6ED9               	movwf	fsr2l,c
  1058   0019A8  6ADA               	clrf	fsr2h,c
  1059   0019AA  30DF               	rrcf	223,w,c
  1060   0019AC  32E8               	rrcf	wreg,f,c
  1061   0019AE  32E8               	rrcf	wreg,f,c
  1062   0019B0  0B07               	andlw	7
  1063   0019B2  6E3C               	movwf	??_led_turn_off^0,c
  1064   0019B4  463C               	rlncf	??_led_turn_off^0,f,c
  1065   0019B6  463C               	rlncf	??_led_turn_off^0,f,c
  1066   0019B8  463C               	rlncf	??_led_turn_off^0,f,c
  1067   0019BA  503D               	movf	led_turn_off@pin^0,w,c
  1068   0019BC  183C               	xorwf	??_led_turn_off^0,w,c
  1069   0019BE  0BC7               	andlw	-57
  1070   0019C0  183C               	xorwf	??_led_turn_off^0,w,c
  1071   0019C2  6E3D               	movwf	led_turn_off@pin^0,c
  1072   0019C4  0E3D               	movlw	low led_turn_off@pin
  1073   0019C6  6E33               	movwf	gpio_pin_write@pin^0,c
  1074   0019C8  503B               	movf	led_turn_off@led^0,w,c
  1075   0019CA  6ED9               	movwf	fsr2l,c
  1076   0019CC  6ADA               	clrf	fsr2h,c
  1077   0019CE  0E00               	movlw	0
  1078   0019D0  BCDF               	btfsc	indf2,6,c
  1079   0019D2  0E01               	movlw	1
  1080   0019D4  6E34               	movwf	gpio_pin_write@logic^0,c
  1081   0019D6  EC09  F008         	call	_gpio_pin_write	;wreg free
  1082   0019DA                     l230:
  1083   0019DA  0012               	return		;funcret
  1084   0019DC                     __end_of_led_turn_off:
  1085                           	callstack 0
  1086                           
  1087 ;; *************** function _led_init *****************
  1088 ;; Defined at:
  1089 ;;		line 30 in file "ECU_Layer/LED/led.c"
  1090 ;; Parameters:    Size  Location     Type
  1091 ;;  led             1   11[COMRAM] PTR const struct .
  1092 ;;		 -> led1(1), 
  1093 ;; Auto vars:     Size  Location     Type
  1094 ;;  pin             1   13[COMRAM] struct .
  1095 ;;  ret             1    0        unsigned char 
  1096 ;; Return value:  Size  Location     Type
  1097 ;;                  1    wreg      unsigned char 
  1098 ;; Registers used:
  1099 ;;		wreg, fsr2l, fsr2h, status,2, status,0, prodl, prodh, cstack
  1100 ;; Tracked objects:
  1101 ;;		On entry : 0/0
  1102 ;;		On exit  : 0/0
  1103 ;;		Unchanged: 0/0
  1104 ;; Data sizes:     COMRAM   BANK0   BANK1   BANK2   BANK3   BANK4   BANK5   BANK6   BANK7   BANK8   BANK9  BANK10  BANK1
      +1  BANK12  BANK13  BANK14  BANK15
  1105 ;;      Params:         1       0       0       0       0       0       0       0       0       0       0       0       
      +0       0       0       0       0
  1106 ;;      Locals:         1       0       0       0       0       0       0       0       0       0       0       0       
      +0       0       0       0       0
  1107 ;;      Temps:          1       0       0       0       0       0       0       0       0       0       0       0       
      +0       0       0       0       0
  1108 ;;      Totals:         3       0       0       0       0       0       0       0       0       0       0       0       
      +0       0       0       0       0
  1109 ;;Total ram usage:        3 bytes
  1110 ;; Hardware stack levels used: 1
  1111 ;; Hardware stack levels required when called: 2
  1112 ;; This function calls:
  1113 ;;		_gpio_pin_initialize
  1114 ;; This function is called by:
  1115 ;;		_main
  1116 ;; This function uses a non-reentrant model
  1117 ;;
  1118                           
  1119                           	psect	text5
  1120   0016DA                     __ptext5:
  1121                           	callstack 0
  1122   0016DA                     _led_init:
  1123                           	callstack 28
  1124   0016DA                     
  1125                           ;ECU_Layer/LED/led.c: 33:     if (((void*)0) == led) {
  1126   0016DA  503E               	movf	led_init@led^0,w,c
  1127   0016DC  A4D8               	btfss	status,2,c
  1128   0016DE  EF73  F00B         	goto	u1331
  1129   0016E2  EF75  F00B         	goto	u1330
  1130   0016E6                     u1331:
  1131   0016E6  EF77  F00B         	goto	l212
  1132   0016EA                     u1330:
  1133   0016EA                     
  1134                           ;ECU_Layer/LED/led.c: 35:     } else {
  1135   0016EA  EFBC  F00B         	goto	l216
  1136   0016EE                     l212:
  1137                           
  1138                           ;ECU_Layer/LED/led.c: 36:         pin_config_t pin ={
  1139   0016EE  C058  F040         	movff	led_init@F3078,led_init@pin
  1140   0016F2  503E               	movf	led_init@led^0,w,c
  1141   0016F4  6ED9               	movwf	fsr2l,c
  1142   0016F6  6ADA               	clrf	fsr2h,c
  1143   0016F8  50DF               	movf	223,w,c
  1144   0016FA  0B07               	andlw	7
  1145   0016FC  6E3F               	movwf	??_led_init^0,c
  1146   0016FE  5040               	movf	led_init@pin^0,w,c
  1147   001700  183F               	xorwf	??_led_init^0,w,c
  1148   001702  0BF8               	andlw	-8
  1149   001704  183F               	xorwf	??_led_init^0,w,c
  1150   001706  6E40               	movwf	led_init@pin^0,c
  1151   001708  503E               	movf	led_init@led^0,w,c
  1152   00170A  6ED9               	movwf	fsr2l,c
  1153   00170C  6ADA               	clrf	fsr2h,c
  1154   00170E  30DF               	rrcf	223,w,c
  1155   001710  32E8               	rrcf	wreg,f,c
  1156   001712  32E8               	rrcf	wreg,f,c
  1157   001714  0B07               	andlw	7
  1158   001716  6E3F               	movwf	??_led_init^0,c
  1159   001718  463F               	rlncf	??_led_init^0,f,c
  1160   00171A  463F               	rlncf	??_led_init^0,f,c
  1161   00171C  463F               	rlncf	??_led_init^0,f,c
  1162   00171E  5040               	movf	led_init@pin^0,w,c
  1163   001720  183F               	xorwf	??_led_init^0,w,c
  1164   001722  0BC7               	andlw	-57
  1165   001724  183F               	xorwf	??_led_init^0,w,c
  1166   001726  6E40               	movwf	led_init@pin^0,c
  1167   001728  9C40               	bcf	led_init@pin^0,6,c
  1168   00172A  503E               	movf	led_init@led^0,w,c
  1169   00172C  6ED9               	movwf	fsr2l,c
  1170   00172E  6ADA               	clrf	fsr2h,c
  1171   001730  BCDF               	btfsc	indf2,6,c
  1172   001732  EF9D  F00B         	goto	u1341
  1173   001736  EFA0  F00B         	goto	u1340
  1174   00173A                     u1341:
  1175   00173A  0E01               	movlw	1
  1176   00173C  EFA1  F00B         	goto	u1342
  1177   001740                     u1340:
  1178   001740  0E00               	movlw	0
  1179   001742                     u1342:
  1180   001742  6E3F               	movwf	??_led_init^0,c
  1181   001744  503E               	movf	led_init@led^0,w,c
  1182   001746  6ED9               	movwf	fsr2l,c
  1183   001748  6ADA               	clrf	fsr2h,c
  1184   00174A  BEDF               	btfsc	indf2,7,c
  1185   00174C  EFAA  F00B         	goto	u1351
  1186   001750  EFAD  F00B         	goto	u1350
  1187   001754                     u1351:
  1188   001754  0E01               	movlw	1
  1189   001756  EFAE  F00B         	goto	u1352
  1190   00175A                     u1350:
  1191   00175A  0E00               	movlw	0
  1192   00175C                     u1352:
  1193   00175C  1A3F               	xorwf	??_led_init^0,f,c
  1194   00175E  A4D8               	btfss	status,2,c
  1195   001760  EFB4  F00B         	goto	u1361
  1196   001764  EFB7  F00B         	goto	u1360
  1197   001768                     u1361:
  1198   001768  8E40               	bsf	led_init@pin^0,7,c
  1199   00176A  EFB8  F00B         	goto	u1375
  1200   00176E                     u1360:
  1201   00176E  9E40               	bcf	led_init@pin^0,7,c
  1202   001770                     u1375:
  1203   001770  0E40               	movlw	low led_init@pin
  1204   001772  6E3B               	movwf	gpio_pin_initialize@pin^0,c
  1205   001774  EC1F  F00D         	call	_gpio_pin_initialize	;wreg free
  1206   001778                     l216:
  1207   001778  0012               	return		;funcret
  1208   00177A                     __end_of_led_init:
  1209                           	callstack 0
  1210                           
  1211 ;; *************** function _lcd_4bit_send_char_pos *****************
  1212 ;; Defined at:
  1213 ;;		line 109 in file "ECU_Layer/Chr_LCD/chr_lcd.c"
  1214 ;; Parameters:    Size  Location     Type
  1215 ;;  lcd             1   21[COMRAM] PTR const struct .
  1216 ;;		 -> lcd1(6), 
  1217 ;;  data            1   22[COMRAM] unsigned char 
  1218 ;;  row             1   23[COMRAM] unsigned char 
  1219 ;;  column          1   24[COMRAM] unsigned char 
  1220 ;; Auto vars:     Size  Location     Type
  1221 ;;  ret             1   25[COMRAM] unsigned char 
  1222 ;; Return value:  Size  Location     Type
  1223 ;;                  1    wreg      unsigned char 
  1224 ;; Registers used:
  1225 ;;		wreg, fsr2l, fsr2h, status,2, status,0, prodl, prodh, cstack
  1226 ;; Tracked objects:
  1227 ;;		On entry : 0/0
  1228 ;;		On exit  : 0/0
  1229 ;;		Unchanged: 0/0
  1230 ;; Data sizes:     COMRAM   BANK0   BANK1   BANK2   BANK3   BANK4   BANK5   BANK6   BANK7   BANK8   BANK9  BANK10  BANK1
      +1  BANK12  BANK13  BANK14  BANK15
  1231 ;;      Params:         4       0       0       0       0       0       0       0       0       0       0       0       
      +0       0       0       0       0
  1232 ;;      Locals:         1       0       0       0       0       0       0       0       0       0       0       0       
      +0       0       0       0       0
  1233 ;;      Temps:          0       0       0       0       0       0       0       0       0       0       0       0       
      +0       0       0       0       0
  1234 ;;      Totals:         5       0       0       0       0       0       0       0       0       0       0       0       
      +0       0       0       0       0
  1235 ;;Total ram usage:        5 bytes
  1236 ;; Hardware stack levels used: 1
  1237 ;; Hardware stack levels required when called: 4
  1238 ;; This function calls:
  1239 ;;		_lcd_4bit_send_char
  1240 ;;		_lcd_4bit_set_cursor
  1241 ;; This function is called by:
  1242 ;;		_main
  1243 ;;		_lcd_4bit_send_custom_char
  1244 ;; This function uses a non-reentrant model
  1245 ;;
  1246                           
  1247                           	psect	text6
  1248   001B96                     __ptext6:
  1249                           	callstack 0
  1250   001B96                     _lcd_4bit_send_char_pos:
  1251                           	callstack 26
  1252   001B96                     
  1253                           ;ECU_Layer/Chr_LCD/chr_lcd.c: 112:     if (((void*)0) == lcd) {
  1254   001B96  5048               	movf	lcd_4bit_send_char_pos@lcd^0,w,c
  1255   001B98  A4D8               	btfss	status,2,c
  1256   001B9A  EFD1  F00D         	goto	u1181
  1257   001B9E  EFD3  F00D         	goto	u1180
  1258   001BA2                     u1181:
  1259   001BA2  EFD7  F00D         	goto	l1982
  1260   001BA6                     u1180:
  1261   001BA6                     
  1262                           ;ECU_Layer/Chr_LCD/chr_lcd.c: 113:         ret = 0x00;
  1263   001BA6  0E00               	movlw	0
  1264   001BA8  6E4C               	movwf	lcd_4bit_send_char_pos@ret^0,c
  1265                           
  1266                           ;ECU_Layer/Chr_LCD/chr_lcd.c: 114:     } else {
  1267   001BAA  EFE7  F00D         	goto	l1984
  1268   001BAE                     l1982:
  1269                           
  1270                           ;ECU_Layer/Chr_LCD/chr_lcd.c: 115:         ret = lcd_4bit_set_cursor(lcd, row, column);
  1271   001BAE  C048  F044         	movff	lcd_4bit_send_char_pos@lcd,lcd_4bit_set_cursor@lcd
  1272   001BB2  C04A  F045         	movff	lcd_4bit_send_char_pos@row,lcd_4bit_set_cursor@row
  1273   001BB6  C04B  F046         	movff	lcd_4bit_send_char_pos@column,lcd_4bit_set_cursor@column
  1274   001BBA  ECBD  F00B         	call	_lcd_4bit_set_cursor	;wreg free
  1275   001BBE  6E4C               	movwf	lcd_4bit_send_char_pos@ret^0,c
  1276                           
  1277                           ;ECU_Layer/Chr_LCD/chr_lcd.c: 116:         ret = lcd_4bit_send_char(lcd, data);
  1278   001BC0  C048  F041         	movff	lcd_4bit_send_char_pos@lcd,lcd_4bit_send_char@lcd
  1279   001BC4  C049  F042         	movff	lcd_4bit_send_char_pos@data,lcd_4bit_send_char@data
  1280   001BC8  EC4E  F00D         	call	_lcd_4bit_send_char	;wreg free
  1281   001BCC  6E4C               	movwf	lcd_4bit_send_char_pos@ret^0,c
  1282   001BCE                     l1984:
  1283                           
  1284                           ;ECU_Layer/Chr_LCD/chr_lcd.c: 118:     return ret;
  1285   001BCE  504C               	movf	lcd_4bit_send_char_pos@ret^0,w,c
  1286   001BD0  0012               	return		;funcret
  1287   001BD2                     __end_of_lcd_4bit_send_char_pos:
  1288                           	callstack 0
  1289                           
  1290 ;; *************** function _lcd_4bit_set_cursor *****************
  1291 ;; Defined at:
  1292 ;;		line 334 in file "ECU_Layer/Chr_LCD/chr_lcd.c"
  1293 ;; Parameters:    Size  Location     Type
  1294 ;;  lcd             1   17[COMRAM] PTR const struct .
  1295 ;;		 -> lcd1(6), 
  1296 ;;  row             1   18[COMRAM] unsigned char 
  1297 ;;  column          1   19[COMRAM] unsigned char 
  1298 ;; Auto vars:     Size  Location     Type
  1299 ;;  ret             1   20[COMRAM] unsigned char 
  1300 ;; Return value:  Size  Location     Type
  1301 ;;                  1    wreg      unsigned char 
  1302 ;; Registers used:
  1303 ;;		wreg, fsr2l, fsr2h, status,2, status,0, prodl, prodh, cstack
  1304 ;; Tracked objects:
  1305 ;;		On entry : 0/0
  1306 ;;		On exit  : 0/0
  1307 ;;		Unchanged: 0/0
  1308 ;; Data sizes:     COMRAM   BANK0   BANK1   BANK2   BANK3   BANK4   BANK5   BANK6   BANK7   BANK8   BANK9  BANK10  BANK1
      +1  BANK12  BANK13  BANK14  BANK15
  1309 ;;      Params:         3       0       0       0       0       0       0       0       0       0       0       0       
      +0       0       0       0       0
  1310 ;;      Locals:         1       0       0       0       0       0       0       0       0       0       0       0       
      +0       0       0       0       0
  1311 ;;      Temps:          0       0       0       0       0       0       0       0       0       0       0       0       
      +0       0       0       0       0
  1312 ;;      Totals:         4       0       0       0       0       0       0       0       0       0       0       0       
      +0       0       0       0       0
  1313 ;;Total ram usage:        4 bytes
  1314 ;; Hardware stack levels used: 1
  1315 ;; Hardware stack levels required when called: 3
  1316 ;; This function calls:
  1317 ;;		_lcd_4bit_send_cmd
  1318 ;; This function is called by:
  1319 ;;		_lcd_4bit_send_char_pos
  1320 ;;		_lcd_4bit_send_string_pos
  1321 ;; This function uses a non-reentrant model
  1322 ;;
  1323                           
  1324                           	psect	text7
  1325   00177A                     __ptext7:
  1326                           	callstack 0
  1327   00177A                     _lcd_4bit_set_cursor:
  1328                           	callstack 26
  1329   00177A                     
  1330                           ;ECU_Layer/Chr_LCD/chr_lcd.c: 336:     column--;
  1331   00177A  0646               	decf	lcd_4bit_set_cursor@column^0,f,c
  1332   00177C                     
  1333                           ;ECU_Layer/Chr_LCD/chr_lcd.c: 338:     if (((void*)0) == lcd) {
  1334   00177C  5044               	movf	lcd_4bit_set_cursor@lcd^0,w,c
  1335   00177E  A4D8               	btfss	status,2,c
  1336   001780  EFC4  F00B         	goto	u1121
  1337   001784  EFC6  F00B         	goto	u1120
  1338   001788                     u1121:
  1339   001788  EFF2  F00B         	goto	l1910
  1340   00178C                     u1120:
  1341   00178C                     l1896:
  1342                           
  1343                           ;ECU_Layer/Chr_LCD/chr_lcd.c: 339:         ret = 0x00;
  1344   00178C  0E00               	movlw	0
  1345   00178E  6E47               	movwf	lcd_4bit_set_cursor@ret^0,c
  1346                           
  1347                           ;ECU_Layer/Chr_LCD/chr_lcd.c: 340:     } else {
  1348   001790  EF05  F00C         	goto	l1912
  1349   001794                     l1898:
  1350                           
  1351                           ;ECU_Layer/Chr_LCD/chr_lcd.c: 343:                 ret = lcd_4bit_send_cmd(lcd, (0x80 + 
      +                          column));
  1352   001794  C044  F041         	movff	lcd_4bit_set_cursor@lcd,lcd_4bit_send_cmd@lcd
  1353   001798  5046               	movf	lcd_4bit_set_cursor@column^0,w,c
  1354   00179A  0F80               	addlw	128
  1355   00179C  6E42               	movwf	lcd_4bit_send_cmd@cmd^0,c
  1356   00179E  EC7C  F00D         	call	_lcd_4bit_send_cmd	;wreg free
  1357   0017A2  6E47               	movwf	lcd_4bit_set_cursor@ret^0,c
  1358                           
  1359                           ;ECU_Layer/Chr_LCD/chr_lcd.c: 344:                 break;
  1360   0017A4  EF05  F00C         	goto	l1912
  1361   0017A8                     l1900:
  1362                           
  1363                           ;ECU_Layer/Chr_LCD/chr_lcd.c: 346:                 ret = lcd_4bit_send_cmd(lcd, (0xC0 + 
      +                          column));
  1364   0017A8  C044  F041         	movff	lcd_4bit_set_cursor@lcd,lcd_4bit_send_cmd@lcd
  1365   0017AC  5046               	movf	lcd_4bit_set_cursor@column^0,w,c
  1366   0017AE  0FC0               	addlw	192
  1367   0017B0  6E42               	movwf	lcd_4bit_send_cmd@cmd^0,c
  1368   0017B2  EC7C  F00D         	call	_lcd_4bit_send_cmd	;wreg free
  1369   0017B6  6E47               	movwf	lcd_4bit_set_cursor@ret^0,c
  1370                           
  1371                           ;ECU_Layer/Chr_LCD/chr_lcd.c: 347:                 break;
  1372   0017B8  EF05  F00C         	goto	l1912
  1373   0017BC                     l1902:
  1374                           
  1375                           ;ECU_Layer/Chr_LCD/chr_lcd.c: 349:                 ret = lcd_4bit_send_cmd(lcd, (0x94 + 
      +                          column));
  1376   0017BC  C044  F041         	movff	lcd_4bit_set_cursor@lcd,lcd_4bit_send_cmd@lcd
  1377   0017C0  5046               	movf	lcd_4bit_set_cursor@column^0,w,c
  1378   0017C2  0F94               	addlw	148
  1379   0017C4  6E42               	movwf	lcd_4bit_send_cmd@cmd^0,c
  1380   0017C6  EC7C  F00D         	call	_lcd_4bit_send_cmd	;wreg free
  1381   0017CA  6E47               	movwf	lcd_4bit_set_cursor@ret^0,c
  1382                           
  1383                           ;ECU_Layer/Chr_LCD/chr_lcd.c: 350:                 break;
  1384   0017CC  EF05  F00C         	goto	l1912
  1385   0017D0                     l1904:
  1386                           
  1387                           ;ECU_Layer/Chr_LCD/chr_lcd.c: 352:                 ret = lcd_4bit_send_cmd(lcd, (0xD4 + 
      +                          column));
  1388   0017D0  C044  F041         	movff	lcd_4bit_set_cursor@lcd,lcd_4bit_send_cmd@lcd
  1389   0017D4  5046               	movf	lcd_4bit_set_cursor@column^0,w,c
  1390   0017D6  0FD4               	addlw	212
  1391   0017D8  6E42               	movwf	lcd_4bit_send_cmd@cmd^0,c
  1392   0017DA  EC7C  F00D         	call	_lcd_4bit_send_cmd	;wreg free
  1393   0017DE  6E47               	movwf	lcd_4bit_set_cursor@ret^0,c
  1394                           
  1395                           ;ECU_Layer/Chr_LCD/chr_lcd.c: 353:                 break;
  1396   0017E0  EF05  F00C         	goto	l1912
  1397   0017E4                     l1910:
  1398   0017E4  5045               	movf	lcd_4bit_set_cursor@row^0,w,c
  1399                           
  1400                           ; Switch size 1, requested type "simple"
  1401                           ; Number of cases is 4, Range of values is 1 to 4
  1402                           ; switch strategies available:
  1403                           ; Name         Instructions Cycles
  1404                           ; simple_byte           13     7 (average)
  1405                           ;	Chosen strategy is simple_byte
  1406   0017E6  0A01               	xorlw	1	; case 1
  1407   0017E8  B4D8               	btfsc	status,2,c
  1408   0017EA  EFCA  F00B         	goto	l1898
  1409   0017EE  0A03               	xorlw	3	; case 2
  1410   0017F0  B4D8               	btfsc	status,2,c
  1411   0017F2  EFD4  F00B         	goto	l1900
  1412   0017F6  0A01               	xorlw	1	; case 3
  1413   0017F8  B4D8               	btfsc	status,2,c
  1414   0017FA  EFDE  F00B         	goto	l1902
  1415   0017FE  0A07               	xorlw	7	; case 4
  1416   001800  B4D8               	btfsc	status,2,c
  1417   001802  EFE8  F00B         	goto	l1904
  1418   001806  EFC6  F00B         	goto	l1896
  1419   00180A                     l1912:
  1420                           
  1421                           ;ECU_Layer/Chr_LCD/chr_lcd.c: 359:     return ret;
  1422   00180A  5047               	movf	lcd_4bit_set_cursor@ret^0,w,c
  1423   00180C  0012               	return		;funcret
  1424   00180E                     __end_of_lcd_4bit_set_cursor:
  1425                           	callstack 0
  1426                           
  1427 ;; *************** function _lcd_4bit_send_char *****************
  1428 ;; Defined at:
  1429 ;;		line 92 in file "ECU_Layer/Chr_LCD/chr_lcd.c"
  1430 ;; Parameters:    Size  Location     Type
  1431 ;;  lcd             1   14[COMRAM] PTR const struct .
  1432 ;;		 -> lcd1(6), 
  1433 ;;  data            1   15[COMRAM] unsigned char 
  1434 ;; Auto vars:     Size  Location     Type
  1435 ;;  ret             1   16[COMRAM] unsigned char 
  1436 ;; Return value:  Size  Location     Type
  1437 ;;                  1    wreg      unsigned char 
  1438 ;; Registers used:
  1439 ;;		wreg, fsr2l, fsr2h, status,2, status,0, prodl, prodh, cstack
  1440 ;; Tracked objects:
  1441 ;;		On entry : 0/0
  1442 ;;		On exit  : 0/0
  1443 ;;		Unchanged: 0/0
  1444 ;; Data sizes:     COMRAM   BANK0   BANK1   BANK2   BANK3   BANK4   BANK5   BANK6   BANK7   BANK8   BANK9  BANK10  BANK1
      +1  BANK12  BANK13  BANK14  BANK15
  1445 ;;      Params:         2       0       0       0       0       0       0       0       0       0       0       0       
      +0       0       0       0       0
  1446 ;;      Locals:         1       0       0       0       0       0       0       0       0       0       0       0       
      +0       0       0       0       0
  1447 ;;      Temps:          0       0       0       0       0       0       0       0       0       0       0       0       
      +0       0       0       0       0
  1448 ;;      Totals:         3       0       0       0       0       0       0       0       0       0       0       0       
      +0       0       0       0       0
  1449 ;;Total ram usage:        3 bytes
  1450 ;; Hardware stack levels used: 1
  1451 ;; Hardware stack levels required when called: 2
  1452 ;; This function calls:
  1453 ;;		_gpio_pin_write
  1454 ;;		_lcd_4bits_send_enable_signal
  1455 ;;		_lcd_send_4bits
  1456 ;; This function is called by:
  1457 ;;		_lcd_4bit_send_char_pos
  1458 ;;		_main
  1459 ;;		_lcd_4bit_send_string
  1460 ;;		_lcd_4bit_send_custom_char
  1461 ;; This function uses a non-reentrant model
  1462 ;;
  1463                           
  1464                           	psect	text8
  1465   001A9C                     __ptext8:
  1466                           	callstack 0
  1467   001A9C                     _lcd_4bit_send_char:
  1468                           	callstack 27
  1469   001A9C                     
  1470                           ;ECU_Layer/Chr_LCD/chr_lcd.c: 95:     if (((void*)0) == lcd) {
  1471   001A9C  5041               	movf	lcd_4bit_send_char@lcd^0,w,c
  1472   001A9E  A4D8               	btfss	status,2,c
  1473   001AA0  EF54  F00D         	goto	u1111
  1474   001AA4  EF56  F00D         	goto	u1110
  1475   001AA8                     u1111:
  1476   001AA8  EF5A  F00D         	goto	l1884
  1477   001AAC                     u1110:
  1478   001AAC                     
  1479                           ;ECU_Layer/Chr_LCD/chr_lcd.c: 96:         ret = 0x00;
  1480   001AAC  0E00               	movlw	0
  1481   001AAE  6E43               	movwf	lcd_4bit_send_char@ret^0,c
  1482                           
  1483                           ;ECU_Layer/Chr_LCD/chr_lcd.c: 97:     } else {
  1484   001AB0  EF7A  F00D         	goto	l1886
  1485   001AB4                     l1884:
  1486                           
  1487                           ;ECU_Layer/Chr_LCD/chr_lcd.c: 98:         ret = gpio_pin_write(&(lcd->lcd_rs), GPIO_HIGH
      +                          );
  1488   001AB4  C041  F033         	movff	lcd_4bit_send_char@lcd,gpio_pin_write@pin
  1489   001AB8  0E01               	movlw	1
  1490   001ABA  6E34               	movwf	gpio_pin_write@logic^0,c
  1491   001ABC  EC09  F008         	call	_gpio_pin_write	;wreg free
  1492   001AC0  6E43               	movwf	lcd_4bit_send_char@ret^0,c
  1493                           
  1494                           ;ECU_Layer/Chr_LCD/chr_lcd.c: 100:         ret = lcd_send_4bits(lcd, data >> 4);
  1495   001AC2  C041  F03B         	movff	lcd_4bit_send_char@lcd,lcd_send_4bits@lcd
  1496   001AC6  3842               	swapf	lcd_4bit_send_char@data^0,w,c
  1497   001AC8  0B0F               	andlw	15
  1498   001ACA  6E3C               	movwf	lcd_send_4bits@_data_cmd^0,c
  1499   001ACC  ECEE  F00C         	call	_lcd_send_4bits	;wreg free
  1500   001AD0  6E43               	movwf	lcd_4bit_send_char@ret^0,c
  1501                           
  1502                           ;ECU_Layer/Chr_LCD/chr_lcd.c: 101:         ret = lcd_4bits_send_enable_signal(lcd);
  1503   001AD2  C041  F03B         	movff	lcd_4bit_send_char@lcd,lcd_4bits_send_enable_signal@lcd
  1504   001AD6  ECE9  F00D         	call	_lcd_4bits_send_enable_signal	;wreg free
  1505   001ADA  6E43               	movwf	lcd_4bit_send_char@ret^0,c
  1506                           
  1507                           ;ECU_Layer/Chr_LCD/chr_lcd.c: 103:         ret = lcd_send_4bits(lcd, data);
  1508   001ADC  C041  F03B         	movff	lcd_4bit_send_char@lcd,lcd_send_4bits@lcd
  1509   001AE0  C042  F03C         	movff	lcd_4bit_send_char@data,lcd_send_4bits@_data_cmd
  1510   001AE4  ECEE  F00C         	call	_lcd_send_4bits	;wreg free
  1511   001AE8  6E43               	movwf	lcd_4bit_send_char@ret^0,c
  1512                           
  1513                           ;ECU_Layer/Chr_LCD/chr_lcd.c: 104:         ret = lcd_4bits_send_enable_signal(lcd);
  1514   001AEA  C041  F03B         	movff	lcd_4bit_send_char@lcd,lcd_4bits_send_enable_signal@lcd
  1515   001AEE  ECE9  F00D         	call	_lcd_4bits_send_enable_signal	;wreg free
  1516   001AF2  6E43               	movwf	lcd_4bit_send_char@ret^0,c
  1517   001AF4                     l1886:
  1518                           
  1519                           ;ECU_Layer/Chr_LCD/chr_lcd.c: 106:     return ret;
  1520   001AF4  5043               	movf	lcd_4bit_send_char@ret^0,w,c
  1521   001AF6  0012               	return		;funcret
  1522   001AF8                     __end_of_lcd_4bit_send_char:
  1523                           	callstack 0
  1524                           
  1525 ;; *************** function _lcd_4bit_init *****************
  1526 ;; Defined at:
  1527 ;;		line 30 in file "ECU_Layer/Chr_LCD/chr_lcd.c"
  1528 ;; Parameters:    Size  Location     Type
  1529 ;;  lcd             1   17[COMRAM] PTR struct .
  1530 ;;		 -> lcd1(6), 
  1531 ;; Auto vars:     Size  Location     Type
  1532 ;;  pins_counter    1   20[COMRAM] unsigned char 
  1533 ;;  ret             1   19[COMRAM] unsigned char 
  1534 ;; Return value:  Size  Location     Type
  1535 ;;                  1    wreg      unsigned char 
  1536 ;; Registers used:
  1537 ;;		wreg, fsr2l, fsr2h, status,2, status,0, prodl, prodh, cstack
  1538 ;; Tracked objects:
  1539 ;;		On entry : 0/0
  1540 ;;		On exit  : 0/0
  1541 ;;		Unchanged: 0/0
  1542 ;; Data sizes:     COMRAM   BANK0   BANK1   BANK2   BANK3   BANK4   BANK5   BANK6   BANK7   BANK8   BANK9  BANK10  BANK1
      +1  BANK12  BANK13  BANK14  BANK15
  1543 ;;      Params:         1       0       0       0       0       0       0       0       0       0       0       0       
      +0       0       0       0       0
  1544 ;;      Locals:         2       0       0       0       0       0       0       0       0       0       0       0       
      +0       0       0       0       0
  1545 ;;      Temps:          1       0       0       0       0       0       0       0       0       0       0       0       
      +0       0       0       0       0
  1546 ;;      Totals:         4       0       0       0       0       0       0       0       0       0       0       0       
      +0       0       0       0       0
  1547 ;;Total ram usage:        4 bytes
  1548 ;; Hardware stack levels used: 1
  1549 ;; Hardware stack levels required when called: 3
  1550 ;; This function calls:
  1551 ;;		_gpio_pin_initialize
  1552 ;;		_lcd_4bit_send_cmd
  1553 ;; This function is called by:
  1554 ;;		_main
  1555 ;; This function uses a non-reentrant model
  1556 ;;
  1557                           
  1558                           	psect	text9
  1559   0012C6                     __ptext9:
  1560                           	callstack 0
  1561   0012C6                     _lcd_4bit_init:
  1562                           	callstack 27
  1563   0012C6                     
  1564                           ;ECU_Layer/Chr_LCD/chr_lcd.c: 32:     uint8 pins_counter = 0;
  1565   0012C6  0E00               	movlw	0
  1566   0012C8  6E47               	movwf	lcd_4bit_init@pins_counter^0,c
  1567                           
  1568                           ;ECU_Layer/Chr_LCD/chr_lcd.c: 34:     if (((void*)0) == lcd) {
  1569   0012CA  5044               	movf	lcd_4bit_init@lcd^0,w,c
  1570   0012CC  A4D8               	btfss	status,2,c
  1571   0012CE  EF6B  F009         	goto	u1161
  1572   0012D2  EF6D  F009         	goto	u1160
  1573   0012D6                     u1161:
  1574   0012D6  EF6F  F009         	goto	l1938
  1575   0012DA                     u1160:
  1576   0012DA                     
  1577                           ;ECU_Layer/Chr_LCD/chr_lcd.c: 36:     } else {
  1578   0012DA  EFFC  F009         	goto	l61
  1579   0012DE                     l1938:
  1580                           
  1581                           ;ECU_Layer/Chr_LCD/chr_lcd.c: 37:         lcd->lcd_rs.direction = GPIO_DIRECTION_OUTPUT;
  1582   0012DE  5044               	movf	lcd_4bit_init@lcd^0,w,c
  1583   0012E0  6ED9               	movwf	fsr2l,c
  1584   0012E2  6ADA               	clrf	fsr2h,c
  1585   0012E4  9CDF               	bcf	indf2,6,c
  1586                           
  1587                           ;ECU_Layer/Chr_LCD/chr_lcd.c: 38:         lcd->lcd_rs.logic = GPIO_LOW;
  1588   0012E6  5044               	movf	lcd_4bit_init@lcd^0,w,c
  1589   0012E8  6ED9               	movwf	fsr2l,c
  1590   0012EA  6ADA               	clrf	fsr2h,c
  1591   0012EC  9EDF               	bcf	indf2,7,c
  1592   0012EE                     
  1593                           ;ECU_Layer/Chr_LCD/chr_lcd.c: 39:         lcd->lcd_en.direction = GPIO_DIRECTION_OUTPUT;
  1594   0012EE  5044               	movf	lcd_4bit_init@lcd^0,w,c
  1595   0012F0  6ED9               	movwf	fsr2l,c
  1596   0012F2  6ADA               	clrf	fsr2h,c
  1597   0012F4  0E01               	movlw	1
  1598   0012F6  26D9               	addwf	fsr2l,f,c
  1599   0012F8  9CDF               	bcf	indf2,6,c
  1600   0012FA                     
  1601                           ;ECU_Layer/Chr_LCD/chr_lcd.c: 40:         lcd->lcd_en.logic = GPIO_LOW;
  1602   0012FA  5044               	movf	lcd_4bit_init@lcd^0,w,c
  1603   0012FC  6ED9               	movwf	fsr2l,c
  1604   0012FE  6ADA               	clrf	fsr2h,c
  1605   001300  0E01               	movlw	1
  1606   001302  26D9               	addwf	fsr2l,f,c
  1607   001304  9EDF               	bcf	indf2,7,c
  1608   001306  C044  F03B         	movff	lcd_4bit_init@lcd,gpio_pin_initialize@pin
  1609   00130A  EC1F  F00D         	call	_gpio_pin_initialize	;wreg free
  1610   00130E  2844               	incf	lcd_4bit_init@lcd^0,w,c
  1611   001310  6E3B               	movwf	gpio_pin_initialize@pin^0,c
  1612   001312  EC1F  F00D         	call	_gpio_pin_initialize	;wreg free
  1613   001316                     
  1614                           ;ECU_Layer/Chr_LCD/chr_lcd.c: 44:         for (pins_counter = 0; pins_counter < 4; pins_
      +                          counter++) {
  1615   001316  0E00               	movlw	0
  1616   001318  6E47               	movwf	lcd_4bit_init@pins_counter^0,c
  1617   00131A                     l1954:
  1618                           
  1619                           ;ECU_Layer/Chr_LCD/chr_lcd.c: 45:             lcd->lcd_data[pins_counter].direction = GP
      +                          IO_DIRECTION_OUTPUT;
  1620   00131A  5044               	movf	lcd_4bit_init@lcd^0,w,c
  1621   00131C  2447               	addwf	lcd_4bit_init@pins_counter^0,w,c
  1622   00131E  6ED9               	movwf	fsr2l,c
  1623   001320  6ADA               	clrf	fsr2h,c
  1624   001322  0E02               	movlw	2
  1625   001324  26D9               	addwf	fsr2l,f,c
  1626   001326  9CDF               	bcf	indf2,6,c
  1627                           
  1628                           ;ECU_Layer/Chr_LCD/chr_lcd.c: 46:             lcd->lcd_data[pins_counter].logic = GPIO_L
      +                          OW;
  1629   001328  5044               	movf	lcd_4bit_init@lcd^0,w,c
  1630   00132A  2447               	addwf	lcd_4bit_init@pins_counter^0,w,c
  1631   00132C  6ED9               	movwf	fsr2l,c
  1632   00132E  6ADA               	clrf	fsr2h,c
  1633   001330  0E02               	movlw	2
  1634   001332  26D9               	addwf	fsr2l,f,c
  1635   001334  9EDF               	bcf	indf2,7,c
  1636   001336  5044               	movf	lcd_4bit_init@lcd^0,w,c
  1637   001338  2447               	addwf	lcd_4bit_init@pins_counter^0,w,c
  1638   00133A  0F02               	addlw	2
  1639   00133C  6E3B               	movwf	gpio_pin_initialize@pin^0,c
  1640   00133E  EC1F  F00D         	call	_gpio_pin_initialize	;wreg free
  1641   001342                     
  1642                           ;ECU_Layer/Chr_LCD/chr_lcd.c: 48:         }
  1643   001342  2A47               	incf	lcd_4bit_init@pins_counter^0,f,c
  1644   001344  0E03               	movlw	3
  1645   001346  6447               	cpfsgt	lcd_4bit_init@pins_counter^0,c
  1646   001348  EFA8  F009         	goto	u1171
  1647   00134C  EFAA  F009         	goto	u1170
  1648   001350                     u1171:
  1649   001350  EF8D  F009         	goto	l1954
  1650   001354                     u1170:
  1651   001354                     
  1652                           ;ECU_Layer/Chr_LCD/chr_lcd.c: 49:         _delay((unsigned long)((20)*(4000000UL/4000.0)
      +                          ));
  1653   001354  0E1A               	movlw	26
  1654   001356  6E45               	movwf	??_lcd_4bit_init^0,c
  1655   001358  0EF8               	movlw	248
  1656   00135A                     u1667:
  1657   00135A  2EE8               	decfsz	wreg,f,c
  1658   00135C  D7FE               	bra	u1667
  1659   00135E  2E45               	decfsz	??_lcd_4bit_init^0,f,c
  1660   001360  D7FC               	bra	u1667
  1661   001362  D000               	nop2	
  1662   001364  C044  F041         	movff	lcd_4bit_init@lcd,lcd_4bit_send_cmd@lcd
  1663   001368  0E38               	movlw	56
  1664   00136A  6E42               	movwf	lcd_4bit_send_cmd@cmd^0,c
  1665   00136C  EC7C  F00D         	call	_lcd_4bit_send_cmd	;wreg free
  1666   001370                     
  1667                           ;ECU_Layer/Chr_LCD/chr_lcd.c: 51:         _delay((unsigned long)((5)*(4000000UL/4000.0))
      +                          );
  1668   001370  0E07               	movlw	7
  1669   001372  6E45               	movwf	??_lcd_4bit_init^0,c
  1670   001374  0E7D               	movlw	125
  1671   001376                     u1677:
  1672   001376  2EE8               	decfsz	wreg,f,c
  1673   001378  D7FE               	bra	u1677
  1674   00137A  2E45               	decfsz	??_lcd_4bit_init^0,f,c
  1675   00137C  D7FC               	bra	u1677
  1676   00137E  0000               	nop	
  1677   001380  C044  F041         	movff	lcd_4bit_init@lcd,lcd_4bit_send_cmd@lcd
  1678   001384  0E38               	movlw	56
  1679   001386  6E42               	movwf	lcd_4bit_send_cmd@cmd^0,c
  1680   001388  EC7C  F00D         	call	_lcd_4bit_send_cmd	;wreg free
  1681   00138C                     
  1682                           ;ECU_Layer/Chr_LCD/chr_lcd.c: 53:         _delay((unsigned long)((120)*(4000000UL/400000
      +                          0.0)));
  1683   00138C  0E28               	movlw	40
  1684   00138E                     u1687:
  1685   00138E  2EE8               	decfsz	wreg,f,c
  1686   001390  D7FE               	bra	u1687
  1687   001392  C044  F041         	movff	lcd_4bit_init@lcd,lcd_4bit_send_cmd@lcd
  1688   001396  0E38               	movlw	56
  1689   001398  6E42               	movwf	lcd_4bit_send_cmd@cmd^0,c
  1690   00139A  EC7C  F00D         	call	_lcd_4bit_send_cmd	;wreg free
  1691   00139E  C044  F041         	movff	lcd_4bit_init@lcd,lcd_4bit_send_cmd@lcd
  1692   0013A2  0E01               	movlw	1
  1693   0013A4  6E42               	movwf	lcd_4bit_send_cmd@cmd^0,c
  1694   0013A6  EC7C  F00D         	call	_lcd_4bit_send_cmd	;wreg free
  1695   0013AA                     
  1696                           ;ECU_Layer/Chr_LCD/chr_lcd.c: 57:         _delay((unsigned long)((1)*(4000000UL/4000.0))
      +                          );
  1697   0013AA  0EC8               	movlw	200
  1698   0013AC                     u1697:
  1699   0013AC  D000               	nop2	
  1700   0013AE  2EE8               	decfsz	wreg,f,c
  1701   0013B0  D7FD               	bra	u1697
  1702                           
  1703                           ;ECU_Layer/Chr_LCD/chr_lcd.c: 58:         ret = lcd_4bit_send_cmd(lcd, 0x02);
  1704   0013B2  C044  F041         	movff	lcd_4bit_init@lcd,lcd_4bit_send_cmd@lcd
  1705   0013B6  0E02               	movlw	2
  1706   0013B8  6E42               	movwf	lcd_4bit_send_cmd@cmd^0,c
  1707   0013BA  EC7C  F00D         	call	_lcd_4bit_send_cmd	;wreg free
  1708   0013BE  6E46               	movwf	lcd_4bit_init@ret^0,c
  1709                           
  1710                           ;ECU_Layer/Chr_LCD/chr_lcd.c: 59:         ret = lcd_4bit_send_cmd(lcd, 0x06);
  1711   0013C0  C044  F041         	movff	lcd_4bit_init@lcd,lcd_4bit_send_cmd@lcd
  1712   0013C4  0E06               	movlw	6
  1713   0013C6  6E42               	movwf	lcd_4bit_send_cmd@cmd^0,c
  1714   0013C8  EC7C  F00D         	call	_lcd_4bit_send_cmd	;wreg free
  1715   0013CC  6E46               	movwf	lcd_4bit_init@ret^0,c
  1716                           
  1717                           ;ECU_Layer/Chr_LCD/chr_lcd.c: 60:         ret = lcd_4bit_send_cmd(lcd, 0x0C);
  1718   0013CE  C044  F041         	movff	lcd_4bit_init@lcd,lcd_4bit_send_cmd@lcd
  1719   0013D2  0E0C               	movlw	12
  1720   0013D4  6E42               	movwf	lcd_4bit_send_cmd@cmd^0,c
  1721   0013D6  EC7C  F00D         	call	_lcd_4bit_send_cmd	;wreg free
  1722   0013DA  6E46               	movwf	lcd_4bit_init@ret^0,c
  1723                           
  1724                           ;ECU_Layer/Chr_LCD/chr_lcd.c: 61:         ret = lcd_4bit_send_cmd(lcd, 0x28);
  1725   0013DC  C044  F041         	movff	lcd_4bit_init@lcd,lcd_4bit_send_cmd@lcd
  1726   0013E0  0E28               	movlw	40
  1727   0013E2  6E42               	movwf	lcd_4bit_send_cmd@cmd^0,c
  1728   0013E4  EC7C  F00D         	call	_lcd_4bit_send_cmd	;wreg free
  1729   0013E8  6E46               	movwf	lcd_4bit_init@ret^0,c
  1730                           
  1731                           ;ECU_Layer/Chr_LCD/chr_lcd.c: 62:         ret = lcd_4bit_send_cmd(lcd, 0x80);
  1732   0013EA  C044  F041         	movff	lcd_4bit_init@lcd,lcd_4bit_send_cmd@lcd
  1733   0013EE  0E80               	movlw	128
  1734   0013F0  6E42               	movwf	lcd_4bit_send_cmd@cmd^0,c
  1735   0013F2  EC7C  F00D         	call	_lcd_4bit_send_cmd	;wreg free
  1736   0013F6  6E46               	movwf	lcd_4bit_init@ret^0,c
  1737   0013F8                     l61:
  1738   0013F8  0012               	return		;funcret
  1739   0013FA                     __end_of_lcd_4bit_init:
  1740                           	callstack 0
  1741                           
  1742 ;; *************** function _lcd_4bit_send_cmd *****************
  1743 ;; Defined at:
  1744 ;;		line 71 in file "ECU_Layer/Chr_LCD/chr_lcd.c"
  1745 ;; Parameters:    Size  Location     Type
  1746 ;;  lcd             1   14[COMRAM] PTR const struct .
  1747 ;;		 -> lcd1(6), 
  1748 ;;  cmd             1   15[COMRAM] unsigned char 
  1749 ;; Auto vars:     Size  Location     Type
  1750 ;;  ret             1   16[COMRAM] unsigned char 
  1751 ;; Return value:  Size  Location     Type
  1752 ;;                  1    wreg      unsigned char 
  1753 ;; Registers used:
  1754 ;;		wreg, fsr2l, fsr2h, status,2, status,0, prodl, prodh, cstack
  1755 ;; Tracked objects:
  1756 ;;		On entry : 0/0
  1757 ;;		On exit  : 0/0
  1758 ;;		Unchanged: 0/0
  1759 ;; Data sizes:     COMRAM   BANK0   BANK1   BANK2   BANK3   BANK4   BANK5   BANK6   BANK7   BANK8   BANK9  BANK10  BANK1
      +1  BANK12  BANK13  BANK14  BANK15
  1760 ;;      Params:         2       0       0       0       0       0       0       0       0       0       0       0       
      +0       0       0       0       0
  1761 ;;      Locals:         1       0       0       0       0       0       0       0       0       0       0       0       
      +0       0       0       0       0
  1762 ;;      Temps:          0       0       0       0       0       0       0       0       0       0       0       0       
      +0       0       0       0       0
  1763 ;;      Totals:         3       0       0       0       0       0       0       0       0       0       0       0       
      +0       0       0       0       0
  1764 ;;Total ram usage:        3 bytes
  1765 ;; Hardware stack levels used: 1
  1766 ;; Hardware stack levels required when called: 2
  1767 ;; This function calls:
  1768 ;;		_gpio_pin_write
  1769 ;;		_lcd_4bits_send_enable_signal
  1770 ;;		_lcd_send_4bits
  1771 ;; This function is called by:
  1772 ;;		_lcd_4bit_init
  1773 ;;		_lcd_4bit_set_cursor
  1774 ;;		_lcd_4bit_send_custom_char
  1775 ;; This function uses a non-reentrant model
  1776 ;;
  1777                           
  1778                           	psect	text10
  1779   001AF8                     __ptext10:
  1780                           	callstack 0
  1781   001AF8                     _lcd_4bit_send_cmd:
  1782                           	callstack 26
  1783   001AF8                     
  1784                           ;ECU_Layer/Chr_LCD/chr_lcd.c: 74:     if (((void*)0) == lcd) {
  1785   001AF8  5041               	movf	lcd_4bit_send_cmd@lcd^0,w,c
  1786   001AFA  A4D8               	btfss	status,2,c
  1787   001AFC  EF82  F00D         	goto	u1031
  1788   001B00  EF84  F00D         	goto	u1030
  1789   001B04                     u1031:
  1790   001B04  EF88  F00D         	goto	l1848
  1791   001B08                     u1030:
  1792   001B08                     
  1793                           ;ECU_Layer/Chr_LCD/chr_lcd.c: 75:         ret = 0x00;
  1794   001B08  0E00               	movlw	0
  1795   001B0A  6E43               	movwf	lcd_4bit_send_cmd@ret^0,c
  1796                           
  1797                           ;ECU_Layer/Chr_LCD/chr_lcd.c: 76:     } else {
  1798   001B0C  EFA8  F00D         	goto	l1850
  1799   001B10                     l1848:
  1800                           
  1801                           ;ECU_Layer/Chr_LCD/chr_lcd.c: 77:         ret = gpio_pin_write(&(lcd->lcd_rs), GPIO_LOW)
      +                          ;
  1802   001B10  C041  F033         	movff	lcd_4bit_send_cmd@lcd,gpio_pin_write@pin
  1803   001B14  0E00               	movlw	0
  1804   001B16  6E34               	movwf	gpio_pin_write@logic^0,c
  1805   001B18  EC09  F008         	call	_gpio_pin_write	;wreg free
  1806   001B1C  6E43               	movwf	lcd_4bit_send_cmd@ret^0,c
  1807                           
  1808                           ;ECU_Layer/Chr_LCD/chr_lcd.c: 79:         ret = lcd_send_4bits(lcd, cmd >> 4);
  1809   001B1E  C041  F03B         	movff	lcd_4bit_send_cmd@lcd,lcd_send_4bits@lcd
  1810   001B22  3842               	swapf	lcd_4bit_send_cmd@cmd^0,w,c
  1811   001B24  0B0F               	andlw	15
  1812   001B26  6E3C               	movwf	lcd_send_4bits@_data_cmd^0,c
  1813   001B28  ECEE  F00C         	call	_lcd_send_4bits	;wreg free
  1814   001B2C  6E43               	movwf	lcd_4bit_send_cmd@ret^0,c
  1815                           
  1816                           ;ECU_Layer/Chr_LCD/chr_lcd.c: 80:         ret = lcd_4bits_send_enable_signal(lcd);
  1817   001B2E  C041  F03B         	movff	lcd_4bit_send_cmd@lcd,lcd_4bits_send_enable_signal@lcd
  1818   001B32  ECE9  F00D         	call	_lcd_4bits_send_enable_signal	;wreg free
  1819   001B36  6E43               	movwf	lcd_4bit_send_cmd@ret^0,c
  1820                           
  1821                           ;ECU_Layer/Chr_LCD/chr_lcd.c: 82:         ret = lcd_send_4bits(lcd, cmd);
  1822   001B38  C041  F03B         	movff	lcd_4bit_send_cmd@lcd,lcd_send_4bits@lcd
  1823   001B3C  C042  F03C         	movff	lcd_4bit_send_cmd@cmd,lcd_send_4bits@_data_cmd
  1824   001B40  ECEE  F00C         	call	_lcd_send_4bits	;wreg free
  1825   001B44  6E43               	movwf	lcd_4bit_send_cmd@ret^0,c
  1826                           
  1827                           ;ECU_Layer/Chr_LCD/chr_lcd.c: 83:         ret = lcd_4bits_send_enable_signal(lcd);
  1828   001B46  C041  F03B         	movff	lcd_4bit_send_cmd@lcd,lcd_4bits_send_enable_signal@lcd
  1829   001B4A  ECE9  F00D         	call	_lcd_4bits_send_enable_signal	;wreg free
  1830   001B4E  6E43               	movwf	lcd_4bit_send_cmd@ret^0,c
  1831   001B50                     l1850:
  1832                           
  1833                           ;ECU_Layer/Chr_LCD/chr_lcd.c: 85:     return ret;
  1834   001B50  5043               	movf	lcd_4bit_send_cmd@ret^0,w,c
  1835   001B52  0012               	return		;funcret
  1836   001B54                     __end_of_lcd_4bit_send_cmd:
  1837                           	callstack 0
  1838                           
  1839 ;; *************** function _lcd_send_4bits *****************
  1840 ;; Defined at:
  1841 ;;		line 307 in file "ECU_Layer/Chr_LCD/chr_lcd.c"
  1842 ;; Parameters:    Size  Location     Type
  1843 ;;  lcd             1    8[COMRAM] PTR const struct .
  1844 ;;		 -> lcd1(6), 
  1845 ;;  _data_cmd       1    9[COMRAM] unsigned char 
  1846 ;; Auto vars:     Size  Location     Type
  1847 ;;  l_pin_counte    1   13[COMRAM] unsigned char 
  1848 ;;  ret             1   12[COMRAM] unsigned char 
  1849 ;; Return value:  Size  Location     Type
  1850 ;;                  1    wreg      unsigned char 
  1851 ;; Registers used:
  1852 ;;		wreg, fsr2l, fsr2h, status,2, status,0, prodl, prodh, cstack
  1853 ;; Tracked objects:
  1854 ;;		On entry : 0/0
  1855 ;;		On exit  : 0/0
  1856 ;;		Unchanged: 0/0
  1857 ;; Data sizes:     COMRAM   BANK0   BANK1   BANK2   BANK3   BANK4   BANK5   BANK6   BANK7   BANK8   BANK9  BANK10  BANK1
      +1  BANK12  BANK13  BANK14  BANK15
  1858 ;;      Params:         2       0       0       0       0       0       0       0       0       0       0       0       
      +0       0       0       0       0
  1859 ;;      Locals:         2       0       0       0       0       0       0       0       0       0       0       0       
      +0       0       0       0       0
  1860 ;;      Temps:          2       0       0       0       0       0       0       0       0       0       0       0       
      +0       0       0       0       0
  1861 ;;      Totals:         6       0       0       0       0       0       0       0       0       0       0       0       
      +0       0       0       0       0
  1862 ;;Total ram usage:        6 bytes
  1863 ;; Hardware stack levels used: 1
  1864 ;; Hardware stack levels required when called: 1
  1865 ;; This function calls:
  1866 ;;		_gpio_pin_write
  1867 ;; This function is called by:
  1868 ;;		_lcd_4bit_send_cmd
  1869 ;;		_lcd_4bit_send_char
  1870 ;; This function uses a non-reentrant model
  1871 ;;
  1872                           
  1873                           	psect	text11
  1874   0019DC                     __ptext11:
  1875                           	callstack 0
  1876   0019DC                     _lcd_send_4bits:
  1877                           	callstack 26
  1878   0019DC                     
  1879                           ;ECU_Layer/Chr_LCD/chr_lcd.c: 309:     uint8 l_pin_counter = 0;
  1880   0019DC  0E00               	movlw	0
  1881   0019DE  6E40               	movwf	lcd_send_4bits@l_pin_counter^0,c
  1882                           
  1883                           ;ECU_Layer/Chr_LCD/chr_lcd.c: 311:     if (((void*)0) == lcd) {
  1884   0019E0  503B               	movf	lcd_send_4bits@lcd^0,w,c
  1885   0019E2  A4D8               	btfss	status,2,c
  1886   0019E4  EFF6  F00C         	goto	u941
  1887   0019E8  EFF8  F00C         	goto	u940
  1888   0019EC                     u941:
  1889   0019EC  EFFC  F00C         	goto	l1796
  1890   0019F0                     u940:
  1891   0019F0                     
  1892                           ;ECU_Layer/Chr_LCD/chr_lcd.c: 312:         ret = 0x00;
  1893   0019F0  0E00               	movlw	0
  1894   0019F2  6E3F               	movwf	lcd_send_4bits@ret^0,c
  1895                           
  1896                           ;ECU_Layer/Chr_LCD/chr_lcd.c: 313:     } else {
  1897   0019F4  EF1D  F00D         	goto	l1808
  1898   0019F8                     l1796:
  1899                           
  1900                           ;ECU_Layer/Chr_LCD/chr_lcd.c: 314:         for (l_pin_counter = 0; l_pin_counter < 4; l_
      +                          pin_counter++) {
  1901   0019F8  0E00               	movlw	0
  1902   0019FA  6E40               	movwf	lcd_send_4bits@l_pin_counter^0,c
  1903   0019FC                     l1802:
  1904                           
  1905                           ;ECU_Layer/Chr_LCD/chr_lcd.c: 315:             ret = gpio_pin_write(&(lcd->lcd_data[l_pi
      +                          n_counter]), (_data_cmd >> l_pin_counter) & 0x01);
  1906   0019FC  503B               	movf	lcd_send_4bits@lcd^0,w,c
  1907   0019FE  2440               	addwf	lcd_send_4bits@l_pin_counter^0,w,c
  1908   001A00  0F02               	addlw	2
  1909   001A02  6E33               	movwf	gpio_pin_write@pin^0,c
  1910   001A04  C040  F03D         	movff	lcd_send_4bits@l_pin_counter,??_lcd_send_4bits
  1911   001A08  C03C  F03E         	movff	lcd_send_4bits@_data_cmd,??_lcd_send_4bits+1
  1912   001A0C  2A3D               	incf	??_lcd_send_4bits^0,f,c
  1913   001A0E  EF0B  F00D         	goto	u954
  1914   001A12                     u955:
  1915   001A12  90D8               	bcf	status,0,c
  1916   001A14  323E               	rrcf	(??_lcd_send_4bits+1)^0,f,c
  1917   001A16                     u954:
  1918   001A16  2E3D               	decfsz	??_lcd_send_4bits^0,f,c
  1919   001A18  EF09  F00D         	goto	u955
  1920   001A1C  503E               	movf	(??_lcd_send_4bits+1)^0,w,c
  1921   001A1E  0B01               	andlw	1
  1922   001A20  6E34               	movwf	gpio_pin_write@logic^0,c
  1923   001A22  EC09  F008         	call	_gpio_pin_write	;wreg free
  1924   001A26  6E3F               	movwf	lcd_send_4bits@ret^0,c
  1925   001A28                     
  1926                           ;ECU_Layer/Chr_LCD/chr_lcd.c: 316:         }
  1927   001A28  2A40               	incf	lcd_send_4bits@l_pin_counter^0,f,c
  1928   001A2A  0E03               	movlw	3
  1929   001A2C  6440               	cpfsgt	lcd_send_4bits@l_pin_counter^0,c
  1930   001A2E  EF1B  F00D         	goto	u961
  1931   001A32  EF1D  F00D         	goto	u960
  1932   001A36                     u961:
  1933   001A36  EFFE  F00C         	goto	l1802
  1934   001A3A                     u960:
  1935   001A3A                     l1808:
  1936                           
  1937                           ;ECU_Layer/Chr_LCD/chr_lcd.c: 318:     return ret;
  1938   001A3A  503F               	movf	lcd_send_4bits@ret^0,w,c
  1939   001A3C  0012               	return		;funcret
  1940   001A3E                     __end_of_lcd_send_4bits:
  1941                           	callstack 0
  1942                           
  1943 ;; *************** function _lcd_4bits_send_enable_signal *****************
  1944 ;; Defined at:
  1945 ;;		line 321 in file "ECU_Layer/Chr_LCD/chr_lcd.c"
  1946 ;; Parameters:    Size  Location     Type
  1947 ;;  lcd             1    8[COMRAM] PTR const struct .
  1948 ;;		 -> lcd1(6), 
  1949 ;; Auto vars:     Size  Location     Type
  1950 ;;  ret             1    9[COMRAM] unsigned char 
  1951 ;; Return value:  Size  Location     Type
  1952 ;;                  1    wreg      unsigned char 
  1953 ;; Registers used:
  1954 ;;		wreg, fsr2l, fsr2h, status,2, status,0, prodl, prodh, cstack
  1955 ;; Tracked objects:
  1956 ;;		On entry : 0/0
  1957 ;;		On exit  : 0/0
  1958 ;;		Unchanged: 0/0
  1959 ;; Data sizes:     COMRAM   BANK0   BANK1   BANK2   BANK3   BANK4   BANK5   BANK6   BANK7   BANK8   BANK9  BANK10  BANK1
      +1  BANK12  BANK13  BANK14  BANK15
  1960 ;;      Params:         1       0       0       0       0       0       0       0       0       0       0       0       
      +0       0       0       0       0
  1961 ;;      Locals:         1       0       0       0       0       0       0       0       0       0       0       0       
      +0       0       0       0       0
  1962 ;;      Temps:          0       0       0       0       0       0       0       0       0       0       0       0       
      +0       0       0       0       0
  1963 ;;      Totals:         2       0       0       0       0       0       0       0       0       0       0       0       
      +0       0       0       0       0
  1964 ;;Total ram usage:        2 bytes
  1965 ;; Hardware stack levels used: 1
  1966 ;; Hardware stack levels required when called: 1
  1967 ;; This function calls:
  1968 ;;		_gpio_pin_write
  1969 ;; This function is called by:
  1970 ;;		_lcd_4bit_send_cmd
  1971 ;;		_lcd_4bit_send_char
  1972 ;; This function uses a non-reentrant model
  1973 ;;
  1974                           
  1975                           	psect	text12
  1976   001BD2                     __ptext12:
  1977                           	callstack 0
  1978   001BD2                     _lcd_4bits_send_enable_signal:
  1979                           	callstack 26
  1980   001BD2                     
  1981                           ;ECU_Layer/Chr_LCD/chr_lcd.c: 324:     if (((void*)0) == lcd) {
  1982   001BD2  503B               	movf	lcd_4bits_send_enable_signal@lcd^0,w,c
  1983   001BD4  A4D8               	btfss	status,2,c
  1984   001BD6  EFEF  F00D         	goto	u971
  1985   001BDA  EFF1  F00D         	goto	u970
  1986   001BDE                     u971:
  1987   001BDE  EFF5  F00D         	goto	l1816
  1988   001BE2                     u970:
  1989   001BE2                     
  1990                           ;ECU_Layer/Chr_LCD/chr_lcd.c: 325:         ret = 0x00;
  1991   001BE2  0E00               	movlw	0
  1992   001BE4  6E3C               	movwf	lcd_4bits_send_enable_signal@ret^0,c
  1993                           
  1994                           ;ECU_Layer/Chr_LCD/chr_lcd.c: 326:     } else {
  1995   001BE6  EF05  F00E         	goto	l1820
  1996   001BEA                     l1816:
  1997   001BEA  283B               	incf	lcd_4bits_send_enable_signal@lcd^0,w,c
  1998   001BEC  6E33               	movwf	gpio_pin_write@pin^0,c
  1999   001BEE  0E01               	movlw	1
  2000   001BF0  6E34               	movwf	gpio_pin_write@logic^0,c
  2001   001BF2  EC09  F008         	call	_gpio_pin_write	;wreg free
  2002   001BF6                     
  2003                           ;ECU_Layer/Chr_LCD/chr_lcd.c: 328:         _delay((unsigned long)((5)*(4000000UL/4000000
      +                          .0)));
  2004   001BF6  D000               	nop2		;2 cycle nop
  2005   001BF8  D000               	nop2		;2 cycle nop
  2006   001BFA  0000               	nop	
  2007                           
  2008                           ;ECU_Layer/Chr_LCD/chr_lcd.c: 329:         ret = gpio_pin_write(&(lcd->lcd_en), GPIO_LOW
      +                          );
  2009   001BFC  283B               	incf	lcd_4bits_send_enable_signal@lcd^0,w,c
  2010   001BFE  6E33               	movwf	gpio_pin_write@pin^0,c
  2011   001C00  0E00               	movlw	0
  2012   001C02  6E34               	movwf	gpio_pin_write@logic^0,c
  2013   001C04  EC09  F008         	call	_gpio_pin_write	;wreg free
  2014   001C08  6E3C               	movwf	lcd_4bits_send_enable_signal@ret^0,c
  2015   001C0A                     l1820:
  2016                           
  2017                           ;ECU_Layer/Chr_LCD/chr_lcd.c: 331:     return ret;
  2018   001C0A  503C               	movf	lcd_4bits_send_enable_signal@ret^0,w,c
  2019   001C0C  0012               	return		;funcret
  2020   001C0E                     __end_of_lcd_4bits_send_enable_signal:
  2021                           	callstack 0
  2022                           
  2023 ;; *************** function _keypad_init *****************
  2024 ;; Defined at:
  2025 ;;		line 37 in file "ECU_Layer/Keypad/keypad.c"
  2026 ;; Parameters:    Size  Location     Type
  2027 ;;  keypad          1   11[COMRAM] PTR struct .
  2028 ;;		 -> keypad1(8), 
  2029 ;; Auto vars:     Size  Location     Type
  2030 ;;  rows_counter    1   13[COMRAM] unsigned char 
  2031 ;;  columns_coun    1   12[COMRAM] unsigned char 
  2032 ;;  ret             1    0        unsigned char 
  2033 ;; Return value:  Size  Location     Type
  2034 ;;                  1    wreg      unsigned char 
  2035 ;; Registers used:
  2036 ;;		wreg, fsr2l, fsr2h, status,2, status,0, prodl, prodh, cstack
  2037 ;; Tracked objects:
  2038 ;;		On entry : 0/0
  2039 ;;		On exit  : 0/0
  2040 ;;		Unchanged: 0/0
  2041 ;; Data sizes:     COMRAM   BANK0   BANK1   BANK2   BANK3   BANK4   BANK5   BANK6   BANK7   BANK8   BANK9  BANK10  BANK1
      +1  BANK12  BANK13  BANK14  BANK15
  2042 ;;      Params:         1       0       0       0       0       0       0       0       0       0       0       0       
      +0       0       0       0       0
  2043 ;;      Locals:         2       0       0       0       0       0       0       0       0       0       0       0       
      +0       0       0       0       0
  2044 ;;      Temps:          0       0       0       0       0       0       0       0       0       0       0       0       
      +0       0       0       0       0
  2045 ;;      Totals:         3       0       0       0       0       0       0       0       0       0       0       0       
      +0       0       0       0       0
  2046 ;;Total ram usage:        3 bytes
  2047 ;; Hardware stack levels used: 1
  2048 ;; Hardware stack levels required when called: 2
  2049 ;; This function calls:
  2050 ;;		_gpio_pin_initialize
  2051 ;;		_gpio_pin_set_direction
  2052 ;; This function is called by:
  2053 ;;		_main
  2054 ;; This function uses a non-reentrant model
  2055 ;;
  2056                           
  2057                           	psect	text13
  2058   00180E                     __ptext13:
  2059                           	callstack 0
  2060   00180E                     _keypad_init:
  2061                           	callstack 28
  2062   00180E                     
  2063                           ;ECU_Layer/Keypad/keypad.c: 39:     uint8 rows_counter = 0, columns_counter = 0;
  2064   00180E  0E00               	movlw	0
  2065   001810  6E40               	movwf	keypad_init@rows_counter^0,c
  2066   001812  0E00               	movlw	0
  2067   001814  6E3F               	movwf	keypad_init@columns_counter^0,c
  2068                           
  2069                           ;ECU_Layer/Keypad/keypad.c: 41:     if (((void*)0) == keypad) {
  2070   001816  503E               	movf	keypad_init@keypad^0,w,c
  2071   001818  A4D8               	btfss	status,2,c
  2072   00181A  EF11  F00C         	goto	u1221
  2073   00181E  EF13  F00C         	goto	u1220
  2074   001822                     u1221:
  2075   001822  EF15  F00C         	goto	l2010
  2076   001826                     u1220:
  2077   001826                     
  2078                           ;ECU_Layer/Keypad/keypad.c: 43:     } else {
  2079   001826  EF47  F00C         	goto	l185
  2080   00182A                     l2010:
  2081                           
  2082                           ;ECU_Layer/Keypad/keypad.c: 45:         for (rows_counter = 0; rows_counter < 4; rows_co
      +                          unter++) {
  2083   00182A  0E00               	movlw	0
  2084   00182C  6E40               	movwf	keypad_init@rows_counter^0,c
  2085   00182E                     l2016:
  2086                           
  2087                           ;ECU_Layer/Keypad/keypad.c: 46:             keypad->keypad_rows_pins[rows_counter].direc
      +                          tion = GPIO_DIRECTION_OUTPUT;
  2088   00182E  503E               	movf	keypad_init@keypad^0,w,c
  2089   001830  2440               	addwf	keypad_init@rows_counter^0,w,c
  2090   001832  6ED9               	movwf	fsr2l,c
  2091   001834  6ADA               	clrf	fsr2h,c
  2092   001836  9CDF               	bcf	indf2,6,c
  2093                           
  2094                           ;ECU_Layer/Keypad/keypad.c: 47:             keypad->keypad_rows_pins[rows_counter].logic
      +                           = GPIO_HIGH;
  2095   001838  503E               	movf	keypad_init@keypad^0,w,c
  2096   00183A  2440               	addwf	keypad_init@rows_counter^0,w,c
  2097   00183C  6ED9               	movwf	fsr2l,c
  2098   00183E  6ADA               	clrf	fsr2h,c
  2099   001840  8EDF               	bsf	indf2,7,c
  2100   001842  503E               	movf	keypad_init@keypad^0,w,c
  2101   001844  2440               	addwf	keypad_init@rows_counter^0,w,c
  2102   001846  6E3B               	movwf	gpio_pin_initialize@pin^0,c
  2103   001848  EC1F  F00D         	call	_gpio_pin_initialize	;wreg free
  2104   00184C                     
  2105                           ;ECU_Layer/Keypad/keypad.c: 49:         }
  2106   00184C  2A40               	incf	keypad_init@rows_counter^0,f,c
  2107   00184E  0E03               	movlw	3
  2108   001850  6440               	cpfsgt	keypad_init@rows_counter^0,c
  2109   001852  EF2D  F00C         	goto	u1231
  2110   001856  EF2F  F00C         	goto	u1230
  2111   00185A                     u1231:
  2112   00185A  EF17  F00C         	goto	l2016
  2113   00185E                     u1230:
  2114   00185E                     
  2115                           ;ECU_Layer/Keypad/keypad.c: 50:         for (columns_counter = 0; columns_counter < 4; c
      +                          olumns_counter++) {
  2116   00185E  0E00               	movlw	0
  2117   001860  6E3F               	movwf	keypad_init@columns_counter^0,c
  2118   001862                     l2030:
  2119                           
  2120                           ;ECU_Layer/Keypad/keypad.c: 51:             keypad->keypad_columns_pins[columns_counter]
      +                          .direction = GPIO_DIRECTION_INPUT;
  2121   001862  503E               	movf	keypad_init@keypad^0,w,c
  2122   001864  243F               	addwf	keypad_init@columns_counter^0,w,c
  2123   001866  6ED9               	movwf	fsr2l,c
  2124   001868  6ADA               	clrf	fsr2h,c
  2125   00186A  0E04               	movlw	4
  2126   00186C  26D9               	addwf	fsr2l,f,c
  2127   00186E  8CDF               	bsf	indf2,6,c
  2128   001870  503E               	movf	keypad_init@keypad^0,w,c
  2129   001872  243F               	addwf	keypad_init@columns_counter^0,w,c
  2130   001874  0F04               	addlw	4
  2131   001876  6E33               	movwf	gpio_pin_set_direction@pin^0,c
  2132   001878  ECFD  F009         	call	_gpio_pin_set_direction	;wreg free
  2133   00187C                     
  2134                           ;ECU_Layer/Keypad/keypad.c: 53:         }
  2135   00187C  2A3F               	incf	keypad_init@columns_counter^0,f,c
  2136   00187E  0E03               	movlw	3
  2137   001880  643F               	cpfsgt	keypad_init@columns_counter^0,c
  2138   001882  EF45  F00C         	goto	u1241
  2139   001886  EF47  F00C         	goto	u1240
  2140   00188A                     u1241:
  2141   00188A  EF31  F00C         	goto	l2030
  2142   00188E                     u1240:
  2143   00188E                     l185:
  2144   00188E  0012               	return		;funcret
  2145   001890                     __end_of_keypad_init:
  2146                           	callstack 0
  2147                           
  2148 ;; *************** function _gpio_pin_initialize *****************
  2149 ;; Defined at:
  2150 ;;		line 210 in file "MCAL_Layer/GPIO/gpio.c"
  2151 ;; Parameters:    Size  Location     Type
  2152 ;;  pin             1    8[COMRAM] PTR const struct .
  2153 ;;		 -> lcd1$lcd_data(4), lcd1$lcd_en(1), lcd1$lcd_rs(1), lcd1(6), 
  2154 ;;		 -> keypad1$keypad_rows_pins(4), keypad1(8), seg1$seg_pins(4), seg1(5), 
  2155 ;;		 -> relay_init@pin(1), led_init@pin(1), dc_motor_init@pin2(1), dc_motor_init@pin1(1), 
  2156 ;; Auto vars:     Size  Location     Type
  2157 ;;  ret             1   10[COMRAM] unsigned char 
  2158 ;; Return value:  Size  Location     Type
  2159 ;;                  1    wreg      unsigned char 
  2160 ;; Registers used:
  2161 ;;		wreg, fsr2l, fsr2h, status,2, status,0, prodl, prodh, cstack
  2162 ;; Tracked objects:
  2163 ;;		On entry : 0/0
  2164 ;;		On exit  : 0/0
  2165 ;;		Unchanged: 0/0
  2166 ;; Data sizes:     COMRAM   BANK0   BANK1   BANK2   BANK3   BANK4   BANK5   BANK6   BANK7   BANK8   BANK9  BANK10  BANK1
      +1  BANK12  BANK13  BANK14  BANK15
  2167 ;;      Params:         1       0       0       0       0       0       0       0       0       0       0       0       
      +0       0       0       0       0
  2168 ;;      Locals:         1       0       0       0       0       0       0       0       0       0       0       0       
      +0       0       0       0       0
  2169 ;;      Temps:          1       0       0       0       0       0       0       0       0       0       0       0       
      +0       0       0       0       0
  2170 ;;      Totals:         3       0       0       0       0       0       0       0       0       0       0       0       
      +0       0       0       0       0
  2171 ;;Total ram usage:        3 bytes
  2172 ;; Hardware stack levels used: 1
  2173 ;; Hardware stack levels required when called: 1
  2174 ;; This function calls:
  2175 ;;		_gpio_pin_set_direction
  2176 ;;		_gpio_pin_write
  2177 ;; This function is called by:
  2178 ;;		_seven_seg_init
  2179 ;;		_lcd_4bit_init
  2180 ;;		_keypad_init
  2181 ;;		_led_init
  2182 ;;		_dc_motor_init
  2183 ;;		_relay_init
  2184 ;; This function uses a non-reentrant model
  2185 ;;
  2186                           
  2187                           	psect	text14
  2188   001A3E                     __ptext14:
  2189                           	callstack 0
  2190   001A3E                     _gpio_pin_initialize:
  2191                           	callstack 28
  2192   001A3E                     
  2193                           ;MCAL_Layer/GPIO/gpio.c: 214:     if(((void*)0) == pin || pin->pin_num > 8 - 1)
  2194   001A3E  503B               	movf	gpio_pin_initialize@pin^0,w,c
  2195   001A40  B4D8               	btfsc	status,2,c
  2196   001A42  EF25  F00D         	goto	u1041
  2197   001A46  EF27  F00D         	goto	u1040
  2198   001A4A                     u1041:
  2199   001A4A  EF37  F00D         	goto	l1858
  2200   001A4E                     u1040:
  2201   001A4E  503B               	movf	gpio_pin_initialize@pin^0,w,c
  2202   001A50  6ED9               	movwf	fsr2l,c
  2203   001A52  6ADA               	clrf	fsr2h,c
  2204   001A54  30DF               	rrcf	223,w,c
  2205   001A56  32E8               	rrcf	wreg,f,c
  2206   001A58  32E8               	rrcf	wreg,f,c
  2207   001A5A  0B07               	andlw	7
  2208   001A5C  6E3C               	movwf	??_gpio_pin_initialize^0,c
  2209   001A5E  0E07               	movlw	7
  2210   001A60  643C               	cpfsgt	??_gpio_pin_initialize^0,c
  2211   001A62  EF35  F00D         	goto	u1051
  2212   001A66  EF37  F00D         	goto	u1050
  2213   001A6A                     u1051:
  2214   001A6A  EF3B  F00D         	goto	l1860
  2215   001A6E                     u1050:
  2216   001A6E                     l1858:
  2217                           
  2218                           ;MCAL_Layer/GPIO/gpio.c: 215:     {;MCAL_Layer/GPIO/gpio.c: 216:         ret = 0x00;
  2219   001A6E  0E00               	movlw	0
  2220   001A70  6E3D               	movwf	gpio_pin_initialize@ret^0,c
  2221                           
  2222                           ;MCAL_Layer/GPIO/gpio.c: 217:     }
  2223   001A72  EF4C  F00D         	goto	l1862
  2224   001A76                     l1860:
  2225                           
  2226                           ;MCAL_Layer/GPIO/gpio.c: 219:     {;MCAL_Layer/GPIO/gpio.c: 220:         ret = gpio_pin_
      +                          set_direction(pin);
  2227   001A76  C03B  F033         	movff	gpio_pin_initialize@pin,gpio_pin_set_direction@pin
  2228   001A7A  ECFD  F009         	call	_gpio_pin_set_direction	;wreg free
  2229   001A7E  6E3D               	movwf	gpio_pin_initialize@ret^0,c
  2230                           
  2231                           ;MCAL_Layer/GPIO/gpio.c: 221:         ret = gpio_pin_write(pin, pin->logic);
  2232   001A80  C03B  F033         	movff	gpio_pin_initialize@pin,gpio_pin_write@pin
  2233   001A84  503B               	movf	gpio_pin_initialize@pin^0,w,c
  2234   001A86  6ED9               	movwf	fsr2l,c
  2235   001A88  6ADA               	clrf	fsr2h,c
  2236   001A8A  0E00               	movlw	0
  2237   001A8C  BEDF               	btfsc	indf2,7,c
  2238   001A8E  0E01               	movlw	1
  2239   001A90  6E34               	movwf	gpio_pin_write@logic^0,c
  2240   001A92  EC09  F008         	call	_gpio_pin_write	;wreg free
  2241   001A96  6E3D               	movwf	gpio_pin_initialize@ret^0,c
  2242   001A98                     l1862:
  2243                           
  2244                           ;MCAL_Layer/GPIO/gpio.c: 224:     return ret;
  2245   001A98  503D               	movf	gpio_pin_initialize@ret^0,w,c
  2246   001A9A  0012               	return		;funcret
  2247   001A9C                     __end_of_gpio_pin_initialize:
  2248                           	callstack 0
  2249                           
  2250 ;; *************** function _gpio_pin_set_direction *****************
  2251 ;; Defined at:
  2252 ;;		line 47 in file "MCAL_Layer/GPIO/gpio.c"
  2253 ;; Parameters:    Size  Location     Type
  2254 ;;  pin             1    0[COMRAM] PTR const struct .
  2255 ;;		 -> lcd1$lcd_data(4), lcd1$lcd_en(1), lcd1$lcd_rs(1), lcd1(6), 
  2256 ;;		 -> keypad1$keypad_columns_pins(4), keypad1$keypad_rows_pins(4), keypad1(8), seg1$seg_pins(4), 
  2257 ;;		 -> seg1(5), relay_init@pin(1), led_init@pin(1), dc_motor_init@pin2(1), 
  2258 ;;		 -> dc_motor_init@pin1(1), 
  2259 ;; Auto vars:     Size  Location     Type
  2260 ;;  ret             1    6[COMRAM] unsigned char 
  2261 ;; Return value:  Size  Location     Type
  2262 ;;                  1    wreg      unsigned char 
  2263 ;; Registers used:
  2264 ;;		wreg, fsr2l, fsr2h, status,2, status,0, prodl, prodh
  2265 ;; Tracked objects:
  2266 ;;		On entry : 0/0
  2267 ;;		On exit  : 0/0
  2268 ;;		Unchanged: 0/0
  2269 ;; Data sizes:     COMRAM   BANK0   BANK1   BANK2   BANK3   BANK4   BANK5   BANK6   BANK7   BANK8   BANK9  BANK10  BANK1
      +1  BANK12  BANK13  BANK14  BANK15
  2270 ;;      Params:         1       0       0       0       0       0       0       0       0       0       0       0       
      +0       0       0       0       0
  2271 ;;      Locals:         1       0       0       0       0       0       0       0       0       0       0       0       
      +0       0       0       0       0
  2272 ;;      Temps:          5       0       0       0       0       0       0       0       0       0       0       0       
      +0       0       0       0       0
  2273 ;;      Totals:         7       0       0       0       0       0       0       0       0       0       0       0       
      +0       0       0       0       0
  2274 ;;Total ram usage:        7 bytes
  2275 ;; Hardware stack levels used: 1
  2276 ;; This function calls:
  2277 ;;		Nothing
  2278 ;; This function is called by:
  2279 ;;		_keypad_init
  2280 ;;		_gpio_pin_initialize
  2281 ;;		_button_init
  2282 ;; This function uses a non-reentrant model
  2283 ;;
  2284                           
  2285                           	psect	text15
  2286   0013FA                     __ptext15:
  2287                           	callstack 0
  2288   0013FA                     _gpio_pin_set_direction:
  2289                           	callstack 28
  2290   0013FA                     
  2291                           ;MCAL_Layer/GPIO/gpio.c: 47: Std_ReturnType gpio_pin_set_direction(const pin_config_t *p
      +                          in);MCAL_Layer/GPIO/gpio.c: 48: {;MCAL_Layer/GPIO/gpio.c: 49:     Std_ReturnType ret = 0
      +                          x01;
  2292   0013FA  0E01               	movlw	1
  2293   0013FC  6E39               	movwf	gpio_pin_set_direction@ret^0,c
  2294                           
  2295                           ;MCAL_Layer/GPIO/gpio.c: 51:     if(((void*)0) == pin || pin->pin_num > 8 - 1)
  2296   0013FE  5033               	movf	gpio_pin_set_direction@pin^0,w,c
  2297   001400  B4D8               	btfsc	status,2,c
  2298   001402  EF05  F00A         	goto	u981
  2299   001406  EF07  F00A         	goto	u980
  2300   00140A                     u981:
  2301   00140A  EF17  F00A         	goto	l1828
  2302   00140E                     u980:
  2303   00140E  5033               	movf	gpio_pin_set_direction@pin^0,w,c
  2304   001410  6ED9               	movwf	fsr2l,c
  2305   001412  6ADA               	clrf	fsr2h,c
  2306   001414  30DF               	rrcf	223,w,c
  2307   001416  32E8               	rrcf	wreg,f,c
  2308   001418  32E8               	rrcf	wreg,f,c
  2309   00141A  0B07               	andlw	7
  2310   00141C  6E34               	movwf	??_gpio_pin_set_direction^0,c
  2311   00141E  0E07               	movlw	7
  2312   001420  6434               	cpfsgt	??_gpio_pin_set_direction^0,c
  2313   001422  EF15  F00A         	goto	u991
  2314   001426  EF17  F00A         	goto	u990
  2315   00142A                     u991:
  2316   00142A  EF6E  F00A         	goto	l1838
  2317   00142E                     u990:
  2318   00142E                     l1828:
  2319                           
  2320                           ;MCAL_Layer/GPIO/gpio.c: 52:     {;MCAL_Layer/GPIO/gpio.c: 53:         ret = 0x00;
  2321   00142E  0E00               	movlw	0
  2322   001430  6E39               	movwf	gpio_pin_set_direction@ret^0,c
  2323                           
  2324                           ;MCAL_Layer/GPIO/gpio.c: 54:     }
  2325   001432  EF84  F00A         	goto	l1840
  2326   001436                     l1830:
  2327                           
  2328                           ;MCAL_Layer/GPIO/gpio.c: 60:             (*tris_registers[pin->port] |= ((uint8)1 << pin
      +                          ->pin_num));
  2329   001436  5033               	movf	gpio_pin_set_direction@pin^0,w,c
  2330   001438  6ED9               	movwf	fsr2l,c
  2331   00143A  6ADA               	clrf	fsr2h,c
  2332   00143C  30DF               	rrcf	223,w,c
  2333   00143E  32E8               	rrcf	wreg,f,c
  2334   001440  32E8               	rrcf	wreg,f,c
  2335   001442  0B07               	andlw	7
  2336   001444  6E34               	movwf	??_gpio_pin_set_direction^0,c
  2337   001446  0E01               	movlw	1
  2338   001448  6E35               	movwf	(??_gpio_pin_set_direction+1)^0,c
  2339   00144A  2A34               	incf	??_gpio_pin_set_direction^0,f,c
  2340   00144C  EF2A  F00A         	goto	u1004
  2341   001450                     u1005:
  2342   001450  90D8               	bcf	status,0,c
  2343   001452  3635               	rlcf	(??_gpio_pin_set_direction+1)^0,f,c
  2344   001454                     u1004:
  2345   001454  2E34               	decfsz	??_gpio_pin_set_direction^0,f,c
  2346   001456  EF28  F00A         	goto	u1005
  2347   00145A  5033               	movf	gpio_pin_set_direction@pin^0,w,c
  2348   00145C  6ED9               	movwf	fsr2l,c
  2349   00145E  6ADA               	clrf	fsr2h,c
  2350   001460  50DF               	movf	223,w,c
  2351   001462  0B07               	andlw	7
  2352   001464  0D02               	mullw	2
  2353   001466  50F3               	movf	243,w,c
  2354   001468  0F15               	addlw	low _tris_registers
  2355   00146A  6ED9               	movwf	fsr2l,c
  2356   00146C  6ADA               	clrf	fsr2h,c
  2357   00146E  CFDE F036          	movff	postinc2,??_gpio_pin_set_direction+2
  2358   001472  CFDD F037          	movff	postdec2,??_gpio_pin_set_direction+3
  2359   001476  C036  FFD9         	movff	??_gpio_pin_set_direction+2,fsr2l
  2360   00147A  C037  FFDA         	movff	??_gpio_pin_set_direction+3,fsr2h
  2361   00147E  5035               	movf	(??_gpio_pin_set_direction+1)^0,w,c
  2362   001480  12DF               	iorwf	indf2,f,c
  2363                           
  2364                           ;MCAL_Layer/GPIO/gpio.c: 61:             break;
  2365   001482  EF84  F00A         	goto	l1840
  2366   001486                     l1832:
  2367                           
  2368                           ;MCAL_Layer/GPIO/gpio.c: 63:             (*tris_registers[pin->port] &= (~((uint8)1 << p
      +                          in->pin_num)));
  2369   001486  5033               	movf	gpio_pin_set_direction@pin^0,w,c
  2370   001488  6ED9               	movwf	fsr2l,c
  2371   00148A  6ADA               	clrf	fsr2h,c
  2372   00148C  30DF               	rrcf	223,w,c
  2373   00148E  32E8               	rrcf	wreg,f,c
  2374   001490  32E8               	rrcf	wreg,f,c
  2375   001492  0B07               	andlw	7
  2376   001494  6E34               	movwf	??_gpio_pin_set_direction^0,c
  2377   001496  0E01               	movlw	1
  2378   001498  6E35               	movwf	(??_gpio_pin_set_direction+1)^0,c
  2379   00149A  2A34               	incf	??_gpio_pin_set_direction^0,f,c
  2380   00149C  EF52  F00A         	goto	u1014
  2381   0014A0                     u1015:
  2382   0014A0  90D8               	bcf	status,0,c
  2383   0014A2  3635               	rlcf	(??_gpio_pin_set_direction+1)^0,f,c
  2384   0014A4                     u1014:
  2385   0014A4  2E34               	decfsz	??_gpio_pin_set_direction^0,f,c
  2386   0014A6  EF50  F00A         	goto	u1015
  2387   0014AA  5035               	movf	(??_gpio_pin_set_direction+1)^0,w,c
  2388   0014AC  0AFF               	xorlw	255
  2389   0014AE  6E36               	movwf	(??_gpio_pin_set_direction+2)^0,c
  2390   0014B0  5033               	movf	gpio_pin_set_direction@pin^0,w,c
  2391   0014B2  6ED9               	movwf	fsr2l,c
  2392   0014B4  6ADA               	clrf	fsr2h,c
  2393   0014B6  50DF               	movf	223,w,c
  2394   0014B8  0B07               	andlw	7
  2395   0014BA  0D02               	mullw	2
  2396   0014BC  50F3               	movf	243,w,c
  2397   0014BE  0F15               	addlw	low _tris_registers
  2398   0014C0  6ED9               	movwf	fsr2l,c
  2399   0014C2  6ADA               	clrf	fsr2h,c
  2400   0014C4  CFDE F037          	movff	postinc2,??_gpio_pin_set_direction+3
  2401   0014C8  CFDD F038          	movff	postdec2,??_gpio_pin_set_direction+4
  2402   0014CC  C037  FFD9         	movff	??_gpio_pin_set_direction+3,fsr2l
  2403   0014D0  C038  FFDA         	movff	??_gpio_pin_set_direction+4,fsr2h
  2404   0014D4  5036               	movf	(??_gpio_pin_set_direction+2)^0,w,c
  2405   0014D6  16DF               	andwf	indf2,f,c
  2406                           
  2407                           ;MCAL_Layer/GPIO/gpio.c: 64:             break;
  2408   0014D8  EF84  F00A         	goto	l1840
  2409   0014DC                     l1838:
  2410   0014DC  5033               	movf	gpio_pin_set_direction@pin^0,w,c
  2411   0014DE  6ED9               	movwf	fsr2l,c
  2412   0014E0  6ADA               	clrf	fsr2h,c
  2413   0014E2  BCDF               	btfsc	indf2,6,c
  2414   0014E4  EF76  F00A         	goto	u1021
  2415   0014E8  EF79  F00A         	goto	u1020
  2416   0014EC                     u1021:
  2417   0014EC  0E01               	movlw	1
  2418   0014EE  EF7A  F00A         	goto	u1026
  2419   0014F2                     u1020:
  2420   0014F2  0E00               	movlw	0
  2421   0014F4                     u1026:
  2422                           
  2423                           ; Switch size 1, requested type "simple"
  2424                           ; Number of cases is 2, Range of values is 0 to 1
  2425                           ; switch strategies available:
  2426                           ; Name         Instructions Cycles
  2427                           ; simple_byte            7     4 (average)
  2428                           ;	Chosen strategy is simple_byte
  2429   0014F4  0A00               	xorlw	0	; case 0
  2430   0014F6  B4D8               	btfsc	status,2,c
  2431   0014F8  EF43  F00A         	goto	l1832
  2432   0014FC  0A01               	xorlw	1	; case 1
  2433   0014FE  B4D8               	btfsc	status,2,c
  2434   001500  EF1B  F00A         	goto	l1830
  2435   001504  EF17  F00A         	goto	l1828
  2436   001508                     l1840:
  2437                           
  2438                           ;MCAL_Layer/GPIO/gpio.c: 71:     return ret;
  2439   001508  5039               	movf	gpio_pin_set_direction@ret^0,w,c
  2440   00150A  0012               	return		;funcret
  2441   00150C                     __end_of_gpio_pin_set_direction:
  2442                           	callstack 0
  2443                           
  2444 ;; *************** function _keypad_get_value *****************
  2445 ;; Defined at:
  2446 ;;		line 67 in file "ECU_Layer/Keypad/keypad.c"
  2447 ;; Parameters:    Size  Location     Type
  2448 ;;  keypad          1   10[COMRAM] PTR const struct .
  2449 ;;		 -> keypad1(8), 
  2450 ;;  value           1   11[COMRAM] PTR unsigned char 
  2451 ;;		 -> main@val(1), 
  2452 ;; Auto vars:     Size  Location     Type
  2453 ;;  rows_counter    1   16[COMRAM] unsigned char 
  2454 ;;  columns_coun    1   15[COMRAM] unsigned char 
  2455 ;;  column_logic    1   14[COMRAM] enum E2993
  2456 ;;  ret             1   13[COMRAM] unsigned char 
  2457 ;; Return value:  Size  Location     Type
  2458 ;;                  1    wreg      unsigned char 
  2459 ;; Registers used:
  2460 ;;		wreg, fsr1l, fsr1h, fsr2l, fsr2h, status,2, status,0, tblptrl, tblptrh, tblptru, prodl, prodh, cstack
  2461 ;; Tracked objects:
  2462 ;;		On entry : 0/0
  2463 ;;		On exit  : 0/0
  2464 ;;		Unchanged: 0/0
  2465 ;; Data sizes:     COMRAM   BANK0   BANK1   BANK2   BANK3   BANK4   BANK5   BANK6   BANK7   BANK8   BANK9  BANK10  BANK1
      +1  BANK12  BANK13  BANK14  BANK15
  2466 ;;      Params:         2       0       0       0       0       0       0       0       0       0       0       0       
      +0       0       0       0       0
  2467 ;;      Locals:         4       0       0       0       0       0       0       0       0       0       0       0       
      +0       0       0       0       0
  2468 ;;      Temps:          1       0       0       0       0       0       0       0       0       0       0       0       
      +0       0       0       0       0
  2469 ;;      Totals:         7       0       0       0       0       0       0       0       0       0       0       0       
      +0       0       0       0       0
  2470 ;;Total ram usage:        7 bytes
  2471 ;; Hardware stack levels used: 1
  2472 ;; Hardware stack levels required when called: 1
  2473 ;; This function calls:
  2474 ;;		_gpio_pin_read
  2475 ;;		_gpio_pin_write
  2476 ;; This function is called by:
  2477 ;;		_main
  2478 ;; This function uses a non-reentrant model
  2479 ;;
  2480                           
  2481                           	psect	text16
  2482   001174                     __ptext16:
  2483                           	callstack 0
  2484   001174                     _keypad_get_value:
  2485                           	callstack 29
  2486   001174                     
  2487                           ;ECU_Layer/Keypad/keypad.c: 69:     uint8 rows_counter = 0, columns_counter = 0;
  2488   001174  0E00               	movlw	0
  2489   001176  6E43               	movwf	keypad_get_value@rows_counter^0,c
  2490   001178  0E00               	movlw	0
  2491   00117A  6E42               	movwf	keypad_get_value@columns_counter^0,c
  2492                           
  2493                           ;ECU_Layer/Keypad/keypad.c: 70:     logic_t column_logic = GPIO_HIGH;
  2494   00117C  0E01               	movlw	1
  2495   00117E  6E41               	movwf	keypad_get_value@column_logic^0,c
  2496   001180                     
  2497                           ;ECU_Layer/Keypad/keypad.c: 71:     *value = 0xFFU;
  2498   001180  503E               	movf	keypad_get_value@value^0,w,c
  2499   001182  6ED9               	movwf	fsr2l,c
  2500   001184  6ADA               	clrf	fsr2h,c
  2501   001186  0EFF               	movlw	255
  2502   001188  6EDF               	movwf	indf2,c
  2503   00118A                     
  2504                           ;ECU_Layer/Keypad/keypad.c: 73:     if (((void*)0) == keypad || ((void*)0) == value) {
  2505   00118A  503D               	movf	keypad_get_value@keypad^0,w,c
  2506   00118C  B4D8               	btfsc	status,2,c
  2507   00118E  EFCB  F008         	goto	u1251
  2508   001192  EFCD  F008         	goto	u1250
  2509   001196                     u1251:
  2510   001196  EFD5  F008         	goto	l2046
  2511   00119A                     u1250:
  2512   00119A  503E               	movf	keypad_get_value@value^0,w,c
  2513   00119C  A4D8               	btfss	status,2,c
  2514   00119E  EFD3  F008         	goto	u1261
  2515   0011A2  EFD5  F008         	goto	u1260
  2516   0011A6                     u1261:
  2517   0011A6  EFD9  F008         	goto	l2048
  2518   0011AA                     u1260:
  2519   0011AA                     l2046:
  2520                           
  2521                           ;ECU_Layer/Keypad/keypad.c: 74:         ret = 0x00;
  2522   0011AA  0E00               	movlw	0
  2523   0011AC  6E40               	movwf	keypad_get_value@ret^0,c
  2524                           
  2525                           ;ECU_Layer/Keypad/keypad.c: 75:     } else {
  2526   0011AE  EF61  F009         	goto	l2102
  2527   0011B2                     l2048:
  2528                           
  2529                           ;ECU_Layer/Keypad/keypad.c: 76:         for (rows_counter = 0; rows_counter < 4; rows_co
      +                          unter++) {
  2530   0011B2  0E00               	movlw	0
  2531   0011B4  6E43               	movwf	keypad_get_value@rows_counter^0,c
  2532   0011B6                     l2054:
  2533   0011B6  503D               	movf	keypad_get_value@keypad^0,w,c
  2534   0011B8  2443               	addwf	keypad_get_value@rows_counter^0,w,c
  2535   0011BA  6E33               	movwf	gpio_pin_write@pin^0,c
  2536   0011BC  0E01               	movlw	1
  2537   0011BE  6E34               	movwf	gpio_pin_write@logic^0,c
  2538   0011C0  EC09  F008         	call	_gpio_pin_write	;wreg free
  2539   0011C4                     
  2540                           ;ECU_Layer/Keypad/keypad.c: 78:         }
  2541   0011C4  2A43               	incf	keypad_get_value@rows_counter^0,f,c
  2542   0011C6  0E03               	movlw	3
  2543   0011C8  6443               	cpfsgt	keypad_get_value@rows_counter^0,c
  2544   0011CA  EFE9  F008         	goto	u1271
  2545   0011CE  EFEB  F008         	goto	u1270
  2546   0011D2                     u1271:
  2547   0011D2  EFDB  F008         	goto	l2054
  2548   0011D6                     u1270:
  2549   0011D6                     
  2550                           ;ECU_Layer/Keypad/keypad.c: 80:         for (rows_counter = 0; rows_counter < 4; rows_co
      +                          unter++) {
  2551   0011D6  0E00               	movlw	0
  2552   0011D8  6E43               	movwf	keypad_get_value@rows_counter^0,c
  2553   0011DA                     l2066:
  2554   0011DA  503D               	movf	keypad_get_value@keypad^0,w,c
  2555   0011DC  2443               	addwf	keypad_get_value@rows_counter^0,w,c
  2556   0011DE  6E33               	movwf	gpio_pin_write@pin^0,c
  2557   0011E0  0E00               	movlw	0
  2558   0011E2  6E34               	movwf	gpio_pin_write@logic^0,c
  2559   0011E4  EC09  F008         	call	_gpio_pin_write	;wreg free
  2560   0011E8                     
  2561                           ;ECU_Layer/Keypad/keypad.c: 84:             for (columns_counter = 0; columns_counter < 
      +                          4; columns_counter++) {
  2562   0011E8  0E00               	movlw	0
  2563   0011EA  6E42               	movwf	keypad_get_value@columns_counter^0,c
  2564   0011EC                     l2074:
  2565   0011EC  503D               	movf	keypad_get_value@keypad^0,w,c
  2566   0011EE  2442               	addwf	keypad_get_value@columns_counter^0,w,c
  2567   0011F0  0F04               	addlw	4
  2568   0011F2  6E33               	movwf	gpio_pin_read@pin^0,c
  2569   0011F4  0E41               	movlw	low keypad_get_value@column_logic
  2570   0011F6  6E34               	movwf	gpio_pin_read@logic^0,c
  2571   0011F8  EC07  F00B         	call	_gpio_pin_read	;wreg free
  2572   0011FC                     
  2573                           ;ECU_Layer/Keypad/keypad.c: 86:                 if (GPIO_LOW == column_logic) {
  2574   0011FC  5041               	movf	keypad_get_value@column_logic^0,w,c
  2575   0011FE  A4D8               	btfss	status,2,c
  2576   001200  EF04  F009         	goto	u1281
  2577   001204  EF06  F009         	goto	u1280
  2578   001208                     u1281:
  2579   001208  EF3A  F009         	goto	l2088
  2580   00120C                     u1280:
  2581   00120C                     
  2582                           ;ECU_Layer/Keypad/keypad.c: 88:                     _delay((unsigned long)((20)*(4000000
      +                          UL/4000.0)));
  2583   00120C  0E1A               	movlw	26
  2584   00120E  6E3F               	movwf	??_keypad_get_value^0,c
  2585   001210  0EF8               	movlw	248
  2586   001212                     u1707:
  2587   001212  2EE8               	decfsz	wreg,f,c
  2588   001214  D7FE               	bra	u1707
  2589   001216  2E3F               	decfsz	??_keypad_get_value^0,f,c
  2590   001218  D7FC               	bra	u1707
  2591   00121A  D000               	nop2	
  2592   00121C  503D               	movf	keypad_get_value@keypad^0,w,c
  2593   00121E  2442               	addwf	keypad_get_value@columns_counter^0,w,c
  2594   001220  0F04               	addlw	4
  2595   001222  6E33               	movwf	gpio_pin_read@pin^0,c
  2596   001224  0E41               	movlw	low keypad_get_value@column_logic
  2597   001226  6E34               	movwf	gpio_pin_read@logic^0,c
  2598   001228  EC07  F00B         	call	_gpio_pin_read	;wreg free
  2599                           
  2600                           ;ECU_Layer/Keypad/keypad.c: 90:                     while (GPIO_LOW == column_logic) {
  2601   00122C  EF20  F009         	goto	l2084
  2602   001230                     l2082:
  2603   001230  503D               	movf	keypad_get_value@keypad^0,w,c
  2604   001232  2442               	addwf	keypad_get_value@columns_counter^0,w,c
  2605   001234  0F04               	addlw	4
  2606   001236  6E33               	movwf	gpio_pin_read@pin^0,c
  2607   001238  0E41               	movlw	low keypad_get_value@column_logic
  2608   00123A  6E34               	movwf	gpio_pin_read@logic^0,c
  2609   00123C  EC07  F00B         	call	_gpio_pin_read	;wreg free
  2610   001240                     l2084:
  2611                           
  2612                           ;ECU_Layer/Keypad/keypad.c: 90:                     while (GPIO_LOW == column_logic) {
  2613   001240  5041               	movf	keypad_get_value@column_logic^0,w,c
  2614   001242  B4D8               	btfsc	status,2,c
  2615   001244  EF26  F009         	goto	u1291
  2616   001248  EF28  F009         	goto	u1290
  2617   00124C                     u1291:
  2618   00124C  EF18  F009         	goto	l2082
  2619   001250                     u1290:
  2620   001250                     
  2621                           ;ECU_Layer/Keypad/keypad.c: 93:                     *value = keypad_values[rows_counter]
      +                          [columns_counter];
  2622   001250  5043               	movf	keypad_get_value@rows_counter^0,w,c
  2623   001252  0D04               	mullw	4
  2624   001254  50F3               	movf	243,w,c
  2625   001256  0F01               	addlw	low _keypad_values
  2626   001258  2442               	addwf	keypad_get_value@columns_counter^0,w,c
  2627   00125A  6E3F               	movwf	??_keypad_get_value^0,c
  2628   00125C  C03F  FFF6         	movff	??_keypad_get_value,tblptrl
  2629   001260                     	if	1	;There is more than 1 active tblptr byte
  2630   001260  0E10               	movlw	high __smallconst
  2631   001262  6EF7               	movwf	tblptrh,c
  2632   001264                     	endif
  2633   001264                     	if	0	;tblptru may be non-zero
  2634   001264                     	endif
  2635   001264                     	if	0	;tblptru may be non-zero
  2636   001264                     	endif
  2637   001264  503E               	movf	keypad_get_value@value^0,w,c
  2638   001266  6ED9               	movwf	fsr2l,c
  2639   001268  6ADA               	clrf	fsr2h,c
  2640   00126A  0008               	tblrd		*
  2641   00126C  CFF5 FFDF          	movff	tablat,indf2
  2642                           
  2643                           ;ECU_Layer/Keypad/keypad.c: 94:                     break;
  2644   001270  EF43  F009         	goto	l2092
  2645   001274                     l2088:
  2646                           
  2647                           ;ECU_Layer/Keypad/keypad.c: 96:             }
  2648   001274  2A42               	incf	keypad_get_value@columns_counter^0,f,c
  2649   001276  0E03               	movlw	3
  2650   001278  6442               	cpfsgt	keypad_get_value@columns_counter^0,c
  2651   00127A  EF41  F009         	goto	u1301
  2652   00127E  EF43  F009         	goto	u1300
  2653   001282                     u1301:
  2654   001282  EFF6  F008         	goto	l2074
  2655   001286                     u1300:
  2656   001286                     l2092:
  2657                           
  2658                           ;ECU_Layer/Keypad/keypad.c: 97:             ret = gpio_pin_write(&(keypad->keypad_rows_p
      +                          ins[rows_counter]), GPIO_HIGH);
  2659   001286  503D               	movf	keypad_get_value@keypad^0,w,c
  2660   001288  2443               	addwf	keypad_get_value@rows_counter^0,w,c
  2661   00128A  6E33               	movwf	gpio_pin_write@pin^0,c
  2662   00128C  0E01               	movlw	1
  2663   00128E  6E34               	movwf	gpio_pin_write@logic^0,c
  2664   001290  EC09  F008         	call	_gpio_pin_write	;wreg free
  2665   001294  6E40               	movwf	keypad_get_value@ret^0,c
  2666   001296                     
  2667                           ;ECU_Layer/Keypad/keypad.c: 98:             if (0xFFU != *value)
  2668   001296  503E               	movf	keypad_get_value@value^0,w,c
  2669   001298  6ED9               	movwf	fsr2l,c
  2670   00129A  6ADA               	clrf	fsr2h,c
  2671   00129C  28DE               	incf	postinc2,w,c
  2672   00129E  B4D8               	btfsc	status,2,c
  2673   0012A0  EF54  F009         	goto	u1311
  2674   0012A4  EF56  F009         	goto	u1310
  2675   0012A8                     u1311:
  2676   0012A8  EF58  F009         	goto	l2098
  2677   0012AC                     u1310:
  2678   0012AC  EF61  F009         	goto	l2102
  2679   0012B0                     l2098:
  2680                           
  2681                           ;ECU_Layer/Keypad/keypad.c: 100:         }
  2682   0012B0  2A43               	incf	keypad_get_value@rows_counter^0,f,c
  2683   0012B2  0E03               	movlw	3
  2684   0012B4  6443               	cpfsgt	keypad_get_value@rows_counter^0,c
  2685   0012B6  EF5F  F009         	goto	u1321
  2686   0012BA  EF61  F009         	goto	u1320
  2687   0012BE                     u1321:
  2688   0012BE  EFED  F008         	goto	l2066
  2689   0012C2                     u1320:
  2690   0012C2                     l2102:
  2691                           
  2692                           ;ECU_Layer/Keypad/keypad.c: 102:     return ret;
  2693   0012C2  5040               	movf	keypad_get_value@ret^0,w,c
  2694   0012C4  0012               	return		;funcret
  2695   0012C6                     __end_of_keypad_get_value:
  2696                           	callstack 0
  2697                           
  2698 ;; *************** function _gpio_pin_write *****************
  2699 ;; Defined at:
  2700 ;;		line 114 in file "MCAL_Layer/GPIO/gpio.c"
  2701 ;; Parameters:    Size  Location     Type
  2702 ;;  pin             1    0[COMRAM] PTR const struct .
  2703 ;;		 -> lcd1$lcd_data(4), lcd1$lcd_en(1), lcd1$lcd_rs(1), lcd1(6), 
  2704 ;;		 -> keypad1$keypad_rows_pins(4), keypad1(8), seg1$seg_pins(4), seg1(5), 
  2705 ;;		 -> relay_turn_off@pin(1), relay_turn_on@pin(1), relay_init@pin(1), led_turn_off@pin(1), 
  2706 ;;		 -> led_turn_on@pin(1), led_init@pin(1), dc_motor_stop@pin2(1), dc_motor_stop@pin1(1), 
  2707 ;;		 -> dc_motor_move_dir2@pin2(1), dc_motor_move_dir2@pin1(1), dc_motor_move_dir1@pin2(1), dc_motor_move_dir1@pin1(1), 
  2708 ;;		 -> dc_motor_init@pin2(1), dc_motor_init@pin1(1), 
  2709 ;;  logic           1    1[COMRAM] enum E2993
  2710 ;; Auto vars:     Size  Location     Type
  2711 ;;  ret             1    7[COMRAM] unsigned char 
  2712 ;; Return value:  Size  Location     Type
  2713 ;;                  1    wreg      unsigned char 
  2714 ;; Registers used:
  2715 ;;		wreg, fsr2l, fsr2h, status,2, status,0, prodl, prodh
  2716 ;; Tracked objects:
  2717 ;;		On entry : 0/0
  2718 ;;		On exit  : 0/0
  2719 ;;		Unchanged: 0/0
  2720 ;; Data sizes:     COMRAM   BANK0   BANK1   BANK2   BANK3   BANK4   BANK5   BANK6   BANK7   BANK8   BANK9  BANK10  BANK1
      +1  BANK12  BANK13  BANK14  BANK15
  2721 ;;      Params:         2       0       0       0       0       0       0       0       0       0       0       0       
      +0       0       0       0       0
  2722 ;;      Locals:         1       0       0       0       0       0       0       0       0       0       0       0       
      +0       0       0       0       0
  2723 ;;      Temps:          5       0       0       0       0       0       0       0       0       0       0       0       
      +0       0       0       0       0
  2724 ;;      Totals:         8       0       0       0       0       0       0       0       0       0       0       0       
      +0       0       0       0       0
  2725 ;;Total ram usage:        8 bytes
  2726 ;; Hardware stack levels used: 1
  2727 ;; This function calls:
  2728 ;;		Nothing
  2729 ;; This function is called by:
  2730 ;;		_seven_seg_write_number
  2731 ;;		_lcd_4bit_send_cmd
  2732 ;;		_lcd_4bit_send_char
  2733 ;;		_lcd_send_4bits
  2734 ;;		_lcd_4bits_send_enable_signal
  2735 ;;		_keypad_get_value
  2736 ;;		_led_turn_on
  2737 ;;		_led_turn_off
  2738 ;;		_gpio_pin_initialize
  2739 ;;		_dc_motor_move_dir1
  2740 ;;		_dc_motor_move_dir2
  2741 ;;		_dc_motor_stop
  2742 ;;		_relay_turn_on
  2743 ;;		_relay_turn_off
  2744 ;; This function uses a non-reentrant model
  2745 ;;
  2746                           
  2747                           	psect	text17
  2748   001012                     __ptext17:
  2749                           	callstack 0
  2750   001012                     _gpio_pin_write:
  2751                           	callstack 29
  2752   001012                     
  2753                           ;MCAL_Layer/GPIO/gpio.c: 114: Std_ReturnType gpio_pin_write(const pin_config_t *pin, log
      +                          ic_t logic);MCAL_Layer/GPIO/gpio.c: 115: {;MCAL_Layer/GPIO/gpio.c: 116:     Std_ReturnTy
      +                          pe ret = 0x01;
  2754   001012  0E01               	movlw	1
  2755   001014  6E3A               	movwf	gpio_pin_write@ret^0,c
  2756                           
  2757                           ;MCAL_Layer/GPIO/gpio.c: 118:     if(((void*)0) == pin || pin->pin_num > 8 - 1)
  2758   001016  5033               	movf	gpio_pin_write@pin^0,w,c
  2759   001018  B4D8               	btfsc	status,2,c
  2760   00101A  EF11  F008         	goto	u891
  2761   00101E  EF13  F008         	goto	u890
  2762   001022                     u891:
  2763   001022  EF23  F008         	goto	l1772
  2764   001026                     u890:
  2765   001026  5033               	movf	gpio_pin_write@pin^0,w,c
  2766   001028  6ED9               	movwf	fsr2l,c
  2767   00102A  6ADA               	clrf	fsr2h,c
  2768   00102C  30DF               	rrcf	223,w,c
  2769   00102E  32E8               	rrcf	wreg,f,c
  2770   001030  32E8               	rrcf	wreg,f,c
  2771   001032  0B07               	andlw	7
  2772   001034  6E35               	movwf	??_gpio_pin_write^0,c
  2773   001036  0E07               	movlw	7
  2774   001038  6435               	cpfsgt	??_gpio_pin_write^0,c
  2775   00103A  EF21  F008         	goto	u901
  2776   00103E  EF23  F008         	goto	u900
  2777   001042                     u901:
  2778   001042  EFA3  F008         	goto	l1782
  2779   001046                     u900:
  2780   001046                     l1772:
  2781                           
  2782                           ;MCAL_Layer/GPIO/gpio.c: 119:     {;MCAL_Layer/GPIO/gpio.c: 120:         ret = 0x00;
  2783   001046  0E00               	movlw	0
  2784   001048  6E3A               	movwf	gpio_pin_write@ret^0,c
  2785                           
  2786                           ;MCAL_Layer/GPIO/gpio.c: 121:     }
  2787   00104A  EFB8  F008         	goto	l1784
  2788   00104E                     l1774:
  2789                           
  2790                           ;MCAL_Layer/GPIO/gpio.c: 127:             (*lat_registers[pin->port] &= (~((uint8)1 << p
      +                          in->pin_num)));
  2791   00104E  5033               	movf	gpio_pin_write@pin^0,w,c
  2792   001050  6ED9               	movwf	fsr2l,c
  2793   001052  6ADA               	clrf	fsr2h,c
  2794   001054  30DF               	rrcf	223,w,c
  2795   001056  32E8               	rrcf	wreg,f,c
  2796   001058  32E8               	rrcf	wreg,f,c
  2797   00105A  0B07               	andlw	7
  2798   00105C  6E35               	movwf	??_gpio_pin_write^0,c
  2799   00105E  0E01               	movlw	1
  2800   001060  6E36               	movwf	(??_gpio_pin_write+1)^0,c
  2801   001062  2A35               	incf	??_gpio_pin_write^0,f,c
  2802   001064  EF36  F008         	goto	u914
  2803   001068                     u915:
  2804   001068  90D8               	bcf	status,0,c
  2805   00106A  3636               	rlcf	(??_gpio_pin_write+1)^0,f,c
  2806   00106C                     u914:
  2807   00106C  2E35               	decfsz	??_gpio_pin_write^0,f,c
  2808   00106E  EF34  F008         	goto	u915
  2809   001072  5036               	movf	(??_gpio_pin_write+1)^0,w,c
  2810   001074  0AFF               	xorlw	255
  2811   001076  6E37               	movwf	(??_gpio_pin_write+2)^0,c
  2812   001078  5033               	movf	gpio_pin_write@pin^0,w,c
  2813   00107A  6ED9               	movwf	fsr2l,c
  2814   00107C  6ADA               	clrf	fsr2h,c
  2815   00107E  50DF               	movf	223,w,c
  2816   001080  0B07               	andlw	7
  2817   001082  0D02               	mullw	2
  2818   001084  50F3               	movf	243,w,c
  2819   001086  0F0B               	addlw	low _lat_registers
  2820   001088  6ED9               	movwf	fsr2l,c
  2821   00108A  6ADA               	clrf	fsr2h,c
  2822   00108C  CFDE F038          	movff	postinc2,??_gpio_pin_write+3
  2823   001090  CFDD F039          	movff	postdec2,??_gpio_pin_write+4
  2824   001094  C038  FFD9         	movff	??_gpio_pin_write+3,fsr2l
  2825   001098  C039  FFDA         	movff	??_gpio_pin_write+4,fsr2h
  2826   00109C  5037               	movf	(??_gpio_pin_write+2)^0,w,c
  2827   00109E  16DF               	andwf	indf2,f,c
  2828                           
  2829                           ;MCAL_Layer/GPIO/gpio.c: 128:             break;
  2830   0010A0  EFB8  F008         	goto	l1784
  2831   0010A4                     l1776:
  2832                           
  2833                           ;MCAL_Layer/GPIO/gpio.c: 130:             (*lat_registers[pin->port] &= (~((uint8)1 << p
      +                          in->pin_num)));
  2834   0010A4  5033               	movf	gpio_pin_write@pin^0,w,c
  2835   0010A6  6ED9               	movwf	fsr2l,c
  2836   0010A8  6ADA               	clrf	fsr2h,c
  2837   0010AA  30DF               	rrcf	223,w,c
  2838   0010AC  32E8               	rrcf	wreg,f,c
  2839   0010AE  32E8               	rrcf	wreg,f,c
  2840   0010B0  0B07               	andlw	7
  2841   0010B2  6E35               	movwf	??_gpio_pin_write^0,c
  2842   0010B4  0E01               	movlw	1
  2843   0010B6  6E36               	movwf	(??_gpio_pin_write+1)^0,c
  2844   0010B8  2A35               	incf	??_gpio_pin_write^0,f,c
  2845   0010BA  EF61  F008         	goto	u924
  2846   0010BE                     u925:
  2847   0010BE  90D8               	bcf	status,0,c
  2848   0010C0  3636               	rlcf	(??_gpio_pin_write+1)^0,f,c
  2849   0010C2                     u924:
  2850   0010C2  2E35               	decfsz	??_gpio_pin_write^0,f,c
  2851   0010C4  EF5F  F008         	goto	u925
  2852   0010C8  5036               	movf	(??_gpio_pin_write+1)^0,w,c
  2853   0010CA  0AFF               	xorlw	255
  2854   0010CC  6E37               	movwf	(??_gpio_pin_write+2)^0,c
  2855   0010CE  5033               	movf	gpio_pin_write@pin^0,w,c
  2856   0010D0  6ED9               	movwf	fsr2l,c
  2857   0010D2  6ADA               	clrf	fsr2h,c
  2858   0010D4  50DF               	movf	223,w,c
  2859   0010D6  0B07               	andlw	7
  2860   0010D8  0D02               	mullw	2
  2861   0010DA  50F3               	movf	243,w,c
  2862   0010DC  0F0B               	addlw	low _lat_registers
  2863   0010DE  6ED9               	movwf	fsr2l,c
  2864   0010E0  6ADA               	clrf	fsr2h,c
  2865   0010E2  CFDE F038          	movff	postinc2,??_gpio_pin_write+3
  2866   0010E6  CFDD F039          	movff	postdec2,??_gpio_pin_write+4
  2867   0010EA  C038  FFD9         	movff	??_gpio_pin_write+3,fsr2l
  2868   0010EE  C039  FFDA         	movff	??_gpio_pin_write+4,fsr2h
  2869   0010F2  5037               	movf	(??_gpio_pin_write+2)^0,w,c
  2870   0010F4  16DF               	andwf	indf2,f,c
  2871                           
  2872                           ;MCAL_Layer/GPIO/gpio.c: 131:             (*lat_registers[pin->port] |= ((uint8)1 << pin
      +                          ->pin_num));
  2873   0010F6  5033               	movf	gpio_pin_write@pin^0,w,c
  2874   0010F8  6ED9               	movwf	fsr2l,c
  2875   0010FA  6ADA               	clrf	fsr2h,c
  2876   0010FC  30DF               	rrcf	223,w,c
  2877   0010FE  32E8               	rrcf	wreg,f,c
  2878   001100  32E8               	rrcf	wreg,f,c
  2879   001102  0B07               	andlw	7
  2880   001104  6E35               	movwf	??_gpio_pin_write^0,c
  2881   001106  0E01               	movlw	1
  2882   001108  6E36               	movwf	(??_gpio_pin_write+1)^0,c
  2883   00110A  2A35               	incf	??_gpio_pin_write^0,f,c
  2884   00110C  EF8A  F008         	goto	u934
  2885   001110                     u935:
  2886   001110  90D8               	bcf	status,0,c
  2887   001112  3636               	rlcf	(??_gpio_pin_write+1)^0,f,c
  2888   001114                     u934:
  2889   001114  2E35               	decfsz	??_gpio_pin_write^0,f,c
  2890   001116  EF88  F008         	goto	u935
  2891   00111A  5033               	movf	gpio_pin_write@pin^0,w,c
  2892   00111C  6ED9               	movwf	fsr2l,c
  2893   00111E  6ADA               	clrf	fsr2h,c
  2894   001120  50DF               	movf	223,w,c
  2895   001122  0B07               	andlw	7
  2896   001124  0D02               	mullw	2
  2897   001126  50F3               	movf	243,w,c
  2898   001128  0F0B               	addlw	low _lat_registers
  2899   00112A  6ED9               	movwf	fsr2l,c
  2900   00112C  6ADA               	clrf	fsr2h,c
  2901   00112E  CFDE F037          	movff	postinc2,??_gpio_pin_write+2
  2902   001132  CFDD F038          	movff	postdec2,??_gpio_pin_write+3
  2903   001136  C037  FFD9         	movff	??_gpio_pin_write+2,fsr2l
  2904   00113A  C038  FFDA         	movff	??_gpio_pin_write+3,fsr2h
  2905   00113E  5036               	movf	(??_gpio_pin_write+1)^0,w,c
  2906   001140  12DF               	iorwf	indf2,f,c
  2907                           
  2908                           ;MCAL_Layer/GPIO/gpio.c: 132:             break;
  2909   001142  EFB8  F008         	goto	l1784
  2910   001146                     l1782:
  2911   001146  5034               	movf	gpio_pin_write@logic^0,w,c
  2912   001148  6E35               	movwf	??_gpio_pin_write^0,c
  2913   00114A  6A36               	clrf	(??_gpio_pin_write+1)^0,c
  2914                           
  2915                           ; Switch on 2 bytes has been partitioned into a top level switch of size 1, and 1 sub-sw
      +                          itches
  2916                           ; Switch size 1, requested type "simple"
  2917                           ; Number of cases is 1, Range of values is 0 to 0
  2918                           ; switch strategies available:
  2919                           ; Name         Instructions Cycles
  2920                           ; simple_byte            4     3 (average)
  2921                           ;	Chosen strategy is simple_byte
  2922   00114C  5036               	movf	(??_gpio_pin_write+1)^0,w,c
  2923   00114E  0A00               	xorlw	0	; case 0
  2924   001150  B4D8               	btfsc	status,2,c
  2925   001152  EFAD  F008         	goto	l2364
  2926   001156  EF23  F008         	goto	l1772
  2927   00115A                     l2364:
  2928                           
  2929                           ; Switch size 1, requested type "simple"
  2930                           ; Number of cases is 2, Range of values is 0 to 1
  2931                           ; switch strategies available:
  2932                           ; Name         Instructions Cycles
  2933                           ; simple_byte            7     4 (average)
  2934                           ;	Chosen strategy is simple_byte
  2935   00115A  5035               	movf	??_gpio_pin_write^0,w,c
  2936   00115C  0A00               	xorlw	0	; case 0
  2937   00115E  B4D8               	btfsc	status,2,c
  2938   001160  EF27  F008         	goto	l1774
  2939   001164  0A01               	xorlw	1	; case 1
  2940   001166  B4D8               	btfsc	status,2,c
  2941   001168  EF52  F008         	goto	l1776
  2942   00116C  EF23  F008         	goto	l1772
  2943   001170                     l1784:
  2944                           
  2945                           ;MCAL_Layer/GPIO/gpio.c: 139:     return ret;
  2946   001170  503A               	movf	gpio_pin_write@ret^0,w,c
  2947   001172  0012               	return		;funcret
  2948   001174                     __end_of_gpio_pin_write:
  2949                           	callstack 0
  2950                           
  2951 ;; *************** function _gpio_pin_read *****************
  2952 ;; Defined at:
  2953 ;;		line 154 in file "MCAL_Layer/GPIO/gpio.c"
  2954 ;; Parameters:    Size  Location     Type
  2955 ;;  pin             1    0[COMRAM] PTR const struct .
  2956 ;;		 -> keypad1$keypad_columns_pins(4), keypad1(8), 
  2957 ;;  logic           1    1[COMRAM] PTR enum E2993
  2958 ;;		 -> keypad_get_value@column_logic(1), button_read_state@logic(1), 
  2959 ;; Auto vars:     Size  Location     Type
  2960 ;;  ret             1    9[COMRAM] unsigned char 
  2961 ;; Return value:  Size  Location     Type
  2962 ;;                  1    wreg      unsigned char 
  2963 ;; Registers used:
  2964 ;;		wreg, fsr1l, fsr1h, fsr2l, fsr2h, status,2, status,0, prodl, prodh
  2965 ;; Tracked objects:
  2966 ;;		On entry : 0/0
  2967 ;;		On exit  : 0/0
  2968 ;;		Unchanged: 0/0
  2969 ;; Data sizes:     COMRAM   BANK0   BANK1   BANK2   BANK3   BANK4   BANK5   BANK6   BANK7   BANK8   BANK9  BANK10  BANK1
      +1  BANK12  BANK13  BANK14  BANK15
  2970 ;;      Params:         2       0       0       0       0       0       0       0       0       0       0       0       
      +0       0       0       0       0
  2971 ;;      Locals:         1       0       0       0       0       0       0       0       0       0       0       0       
      +0       0       0       0       0
  2972 ;;      Temps:          7       0       0       0       0       0       0       0       0       0       0       0       
      +0       0       0       0       0
  2973 ;;      Totals:        10       0       0       0       0       0       0       0       0       0       0       0       
      +0       0       0       0       0
  2974 ;;Total ram usage:       10 bytes
  2975 ;; Hardware stack levels used: 1
  2976 ;; This function calls:
  2977 ;;		Nothing
  2978 ;; This function is called by:
  2979 ;;		_keypad_get_value
  2980 ;;		_button_read_state
  2981 ;; This function uses a non-reentrant model
  2982 ;;
  2983                           
  2984                           	psect	text18
  2985   00160E                     __ptext18:
  2986                           	callstack 0
  2987   00160E                     _gpio_pin_read:
  2988                           	callstack 29
  2989   00160E                     
  2990                           ;MCAL_Layer/GPIO/gpio.c: 154: Std_ReturnType gpio_pin_read(const pin_config_t *pin, logi
      +                          c_t *logic);MCAL_Layer/GPIO/gpio.c: 155: {;MCAL_Layer/GPIO/gpio.c: 156:     Std_ReturnTy
      +                          pe ret = 0x01;
  2991   00160E  0E01               	movlw	1
  2992   001610  6E3C               	movwf	gpio_pin_read@ret^0,c
  2993                           
  2994                           ;MCAL_Layer/GPIO/gpio.c: 158:     if(((void*)0) == pin || ((void*)0) == logic || pin->pi
      +                          n_num > 8 - 1)
  2995   001612  5033               	movf	gpio_pin_read@pin^0,w,c
  2996   001614  B4D8               	btfsc	status,2,c
  2997   001616  EF0F  F00B         	goto	u1061
  2998   00161A  EF11  F00B         	goto	u1060
  2999   00161E                     u1061:
  3000   00161E  EF29  F00B         	goto	l1872
  3001   001622                     u1060:
  3002   001622  5034               	movf	gpio_pin_read@logic^0,w,c
  3003   001624  B4D8               	btfsc	status,2,c
  3004   001626  EF17  F00B         	goto	u1071
  3005   00162A  EF19  F00B         	goto	u1070
  3006   00162E                     u1071:
  3007   00162E  EF29  F00B         	goto	l1872
  3008   001632                     u1070:
  3009   001632  5033               	movf	gpio_pin_read@pin^0,w,c
  3010   001634  6ED9               	movwf	fsr2l,c
  3011   001636  6ADA               	clrf	fsr2h,c
  3012   001638  30DF               	rrcf	223,w,c
  3013   00163A  32E8               	rrcf	wreg,f,c
  3014   00163C  32E8               	rrcf	wreg,f,c
  3015   00163E  0B07               	andlw	7
  3016   001640  6E35               	movwf	??_gpio_pin_read^0,c
  3017   001642  0E07               	movlw	7
  3018   001644  6435               	cpfsgt	??_gpio_pin_read^0,c
  3019   001646  EF27  F00B         	goto	u1081
  3020   00164A  EF29  F00B         	goto	u1080
  3021   00164E                     u1081:
  3022   00164E  EF2D  F00B         	goto	l1874
  3023   001652                     u1080:
  3024   001652                     l1872:
  3025                           
  3026                           ;MCAL_Layer/GPIO/gpio.c: 159:     {;MCAL_Layer/GPIO/gpio.c: 160:         ret = 0x00;
  3027   001652  0E00               	movlw	0
  3028   001654  6E3C               	movwf	gpio_pin_read@ret^0,c
  3029                           
  3030                           ;MCAL_Layer/GPIO/gpio.c: 161:     }
  3031   001656  EF6B  F00B         	goto	l1876
  3032   00165A                     l1874:
  3033                           
  3034                           ;MCAL_Layer/GPIO/gpio.c: 163:     {;MCAL_Layer/GPIO/gpio.c: 164:         *logic = ((*por
      +                          t_registers[pin->port] & ((uint8)1 << pin->pin_num)) >> pin->pin_num);
  3035   00165A  5034               	movf	gpio_pin_read@logic^0,w,c
  3036   00165C  6ED9               	movwf	fsr2l,c
  3037   00165E  6ADA               	clrf	fsr2h,c
  3038   001660  5033               	movf	gpio_pin_read@pin^0,w,c
  3039   001662  6EE1               	movwf	fsr1l,c
  3040   001664  6AE2               	clrf	fsr1h,c
  3041   001666  30E7               	rrcf	231,w,c
  3042   001668  32E8               	rrcf	wreg,f,c
  3043   00166A  32E8               	rrcf	wreg,f,c
  3044   00166C  0B07               	andlw	7
  3045   00166E  6E35               	movwf	??_gpio_pin_read^0,c
  3046   001670  5033               	movf	gpio_pin_read@pin^0,w,c
  3047   001672  6EE1               	movwf	fsr1l,c
  3048   001674  6AE2               	clrf	fsr1h,c
  3049   001676  50E7               	movf	231,w,c
  3050   001678  0B07               	andlw	7
  3051   00167A  0D02               	mullw	2
  3052   00167C  50F3               	movf	243,w,c
  3053   00167E  0F01               	addlw	low _port_registers
  3054   001680  6EE1               	movwf	fsr1l,c
  3055   001682  6AE2               	clrf	fsr1h,c
  3056   001684  CFE6 F036          	movff	postinc1,??_gpio_pin_read+1
  3057   001688  CFE5 F037          	movff	postdec1,??_gpio_pin_read+2
  3058   00168C  C036  FFE1         	movff	??_gpio_pin_read+1,fsr1l
  3059   001690  C037  FFE2         	movff	??_gpio_pin_read+2,fsr1h
  3060   001694  50E7               	movf	indf1,w,c
  3061   001696  6E38               	movwf	(??_gpio_pin_read+3)^0,c
  3062   001698  5033               	movf	gpio_pin_read@pin^0,w,c
  3063   00169A  6EE1               	movwf	fsr1l,c
  3064   00169C  6AE2               	clrf	fsr1h,c
  3065   00169E  30E7               	rrcf	231,w,c
  3066   0016A0  32E8               	rrcf	wreg,f,c
  3067   0016A2  32E8               	rrcf	wreg,f,c
  3068   0016A4  0B07               	andlw	7
  3069   0016A6  6E39               	movwf	(??_gpio_pin_read+4)^0,c
  3070   0016A8  0E01               	movlw	1
  3071   0016AA  6E3A               	movwf	(??_gpio_pin_read+5)^0,c
  3072   0016AC  2A39               	incf	(??_gpio_pin_read+4)^0,f,c
  3073   0016AE  EF5B  F00B         	goto	u1094
  3074   0016B2                     u1095:
  3075   0016B2  90D8               	bcf	status,0,c
  3076   0016B4  363A               	rlcf	(??_gpio_pin_read+5)^0,f,c
  3077   0016B6                     u1094:
  3078   0016B6  2E39               	decfsz	(??_gpio_pin_read+4)^0,f,c
  3079   0016B8  EF59  F00B         	goto	u1095
  3080   0016BC  503A               	movf	(??_gpio_pin_read+5)^0,w,c
  3081   0016BE  1438               	andwf	(??_gpio_pin_read+3)^0,w,c
  3082   0016C0  6E3B               	movwf	(??_gpio_pin_read+6)^0,c
  3083   0016C2  2A35               	incf	??_gpio_pin_read^0,f,c
  3084   0016C4  EF66  F00B         	goto	u1104
  3085   0016C8                     u1105:
  3086   0016C8  90D8               	bcf	status,0,c
  3087   0016CA  323B               	rrcf	(??_gpio_pin_read+6)^0,f,c
  3088   0016CC                     u1104:
  3089   0016CC  2E35               	decfsz	??_gpio_pin_read^0,f,c
  3090   0016CE  EF64  F00B         	goto	u1105
  3091   0016D2  503B               	movf	(??_gpio_pin_read+6)^0,w,c
  3092   0016D4  6EDF               	movwf	indf2,c
  3093   0016D6                     l1876:
  3094                           
  3095                           ;MCAL_Layer/GPIO/gpio.c: 167:     return ret;
  3096   0016D6  503C               	movf	gpio_pin_read@ret^0,w,c
  3097   0016D8  0012               	return		;funcret
  3098   0016DA                     __end_of_gpio_pin_read:
  3099                           	callstack 0
  3100                           
  3101                           	psect	rparam
  3102   000000                     
  3103                           	psect	config
  3104                           
  3105                           ; Padding undefined space
  3106   300000                     	org	3145728
  3107   300000  FF                 	db	255
  3108                           
  3109                           ;Config register CONFIG1H @ 0x300001
  3110                           ;	Oscillator Selection bits
  3111                           ;	OSC = HS, HS oscillator
  3112                           ;	Fail-Safe Clock Monitor Enable bit
  3113                           ;	FCMEN = OFF, Fail-Safe Clock Monitor disabled
  3114                           ;	Internal/External Oscillator Switchover bit
  3115                           ;	IESO = OFF, Oscillator Switchover mode disabled
  3116   300001                     	org	3145729
  3117   300001  02                 	db	2
  3118                           
  3119                           ;Config register CONFIG2L @ 0x300002
  3120                           ;	Power-up Timer Enable bit
  3121                           ;	PWRT = OFF, PWRT disabled
  3122                           ;	Brown-out Reset Enable bits
  3123                           ;	BOREN = OFF, Brown-out Reset disabled in hardware and software
  3124                           ;	Brown Out Reset Voltage bits
  3125                           ;	BORV = 1, 
  3126   300002                     	org	3145730
  3127   300002  09                 	db	9
  3128                           
  3129                           ;Config register CONFIG2H @ 0x300003
  3130                           ;	Watchdog Timer Enable bit
  3131                           ;	WDT = OFF, WDT disabled (control is placed on the SWDTEN bit)
  3132                           ;	Watchdog Timer Postscale Select bits
  3133                           ;	WDTPS = 32768, 1:32768
  3134   300003                     	org	3145731
  3135   300003  1E                 	db	30
  3136                           
  3137                           ; Padding undefined space
  3138   300004                     	org	3145732
  3139   300004  FF                 	db	255
  3140                           
  3141                           ;Config register CONFIG3H @ 0x300005
  3142                           ;	CCP2 MUX bit
  3143                           ;	CCP2MX = PORTC, CCP2 input/output is multiplexed with RC1
  3144                           ;	PORTB A/D Enable bit
  3145                           ;	PBADEN = OFF, PORTB<4:0> pins are configured as digital I/O on Reset
  3146                           ;	Low-Power Timer1 Oscillator Enable bit
  3147                           ;	LPT1OSC = OFF, Timer1 configured for higher power operation
  3148                           ;	MCLR Pin Enable bit
  3149                           ;	MCLRE = ON, MCLR pin enabled; RE3 input pin disabled
  3150   300005                     	org	3145733
  3151   300005  81                 	db	129
  3152                           
  3153                           ;Config register CONFIG4L @ 0x300006
  3154                           ;	Stack Full/Underflow Reset Enable bit
  3155                           ;	STVREN = ON, Stack full/underflow will cause Reset
  3156                           ;	Single-Supply ICSP Enable bit
  3157                           ;	LVP = OFF, Single-Supply ICSP disabled
  3158                           ;	Extended Instruction Set Enable bit
  3159                           ;	XINST = OFF, Instruction set extension and Indexed Addressing mode disabled (Legacy mo
      +                          de)
  3160                           ;	Background Debugger Enable bit
  3161                           ;	DEBUG = 0x1, unprogrammed default
  3162   300006                     	org	3145734
  3163   300006  81                 	db	129
  3164                           
  3165                           ; Padding undefined space
  3166   300007                     	org	3145735
  3167   300007  FF                 	db	255
  3168                           
  3169                           ;Config register CONFIG5L @ 0x300008
  3170                           ;	Code Protection bit
  3171                           ;	CP0 = OFF, Block 0 (000800-003FFFh) not code-protected
  3172                           ;	Code Protection bit
  3173                           ;	CP1 = OFF, Block 1 (004000-007FFFh) not code-protected
  3174                           ;	Code Protection bit
  3175                           ;	CP2 = OFF, Block 2 (008000-00BFFFh) not code-protected
  3176                           ;	Code Protection bit
  3177                           ;	CP3 = OFF, Block 3 (00C000-00FFFFh) not code-protected
  3178   300008                     	org	3145736
  3179   300008  0F                 	db	15
  3180                           
  3181                           ;Config register CONFIG5H @ 0x300009
  3182                           ;	Boot Block Code Protection bit
  3183                           ;	CPB = OFF, Boot block (000000-0007FFh) not code-protected
  3184                           ;	Data EEPROM Code Protection bit
  3185                           ;	CPD = OFF, Data EEPROM not code-protected
  3186   300009                     	org	3145737
  3187   300009  C0                 	db	192
  3188                           
  3189                           ;Config register CONFIG6L @ 0x30000A
  3190                           ;	Write Protection bit
  3191                           ;	WRT0 = OFF, Block 0 (000800-003FFFh) not write-protected
  3192                           ;	Write Protection bit
  3193                           ;	WRT1 = OFF, Block 1 (004000-007FFFh) not write-protected
  3194                           ;	Write Protection bit
  3195                           ;	WRT2 = OFF, Block 2 (008000-00BFFFh) not write-protected
  3196                           ;	Write Protection bit
  3197                           ;	WRT3 = OFF, Block 3 (00C000-00FFFFh) not write-protected
  3198   30000A                     	org	3145738
  3199   30000A  0F                 	db	15
  3200                           
  3201                           ;Config register CONFIG6H @ 0x30000B
  3202                           ;	Configuration Register Write Protection bit
  3203                           ;	WRTC = OFF, Configuration registers (300000-3000FFh) not write-protected
  3204                           ;	Boot Block Write Protection bit
  3205                           ;	WRTB = OFF, Boot Block (000000-0007FFh) not write-protected
  3206                           ;	Data EEPROM Write Protection bit
  3207                           ;	WRTD = OFF, Data EEPROM not write-protected
  3208   30000B                     	org	3145739
  3209   30000B  E0                 	db	224
  3210                           
  3211                           ;Config register CONFIG7L @ 0x30000C
  3212                           ;	Table Read Protection bit
  3213                           ;	EBTR0 = OFF, Block 0 (000800-003FFFh) not protected from table reads executed in other
      +                           blocks
  3214                           ;	Table Read Protection bit
  3215                           ;	EBTR1 = OFF, Block 1 (004000-007FFFh) not protected from table reads executed in other
      +                           blocks
  3216                           ;	Table Read Protection bit
  3217                           ;	EBTR2 = OFF, Block 2 (008000-00BFFFh) not protected from table reads executed in other
      +                           blocks
  3218                           ;	Table Read Protection bit
  3219                           ;	EBTR3 = OFF, Block 3 (00C000-00FFFFh) not protected from table reads executed in other
      +                           blocks
  3220   30000C                     	org	3145740
  3221   30000C  0F                 	db	15
  3222                           
  3223                           ;Config register CONFIG7H @ 0x30000D
  3224                           ;	Boot Block Table Read Protection bit
  3225                           ;	EBTRB = OFF, Boot Block (000000-0007FFh) not protected from table reads executed in ot
      +                          her blocks
  3226   30000D                     	org	3145741
  3227   30000D  40                 	db	64
  3228                           tosu	equ	0xFFF
  3229                           tosh	equ	0xFFE
  3230                           tosl	equ	0xFFD
  3231                           stkptr	equ	0xFFC
  3232                           pclatu	equ	0xFFB
  3233                           pclath	equ	0xFFA
  3234                           pcl	equ	0xFF9
  3235                           tblptru	equ	0xFF8
  3236                           tblptrh	equ	0xFF7
  3237                           tblptrl	equ	0xFF6
  3238                           tablat	equ	0xFF5
  3239                           prodh	equ	0xFF4
  3240                           prodl	equ	0xFF3
  3241                           indf0	equ	0xFEF
  3242                           postinc0	equ	0xFEE
  3243                           postdec0	equ	0xFED
  3244                           preinc0	equ	0xFEC
  3245                           plusw0	equ	0xFEB
  3246                           fsr0h	equ	0xFEA
  3247                           fsr0l	equ	0xFE9
  3248                           wreg	equ	0xFE8
  3249                           indf1	equ	0xFE7
  3250                           postinc1	equ	0xFE6
  3251                           postdec1	equ	0xFE5
  3252                           preinc1	equ	0xFE4
  3253                           plusw1	equ	0xFE3
  3254                           fsr1h	equ	0xFE2
  3255                           fsr1l	equ	0xFE1
  3256                           bsr	equ	0xFE0
  3257                           indf2	equ	0xFDF
  3258                           postinc2	equ	0xFDE
  3259                           postdec2	equ	0xFDD
  3260                           preinc2	equ	0xFDC
  3261                           plusw2	equ	0xFDB
  3262                           fsr2h	equ	0xFDA
  3263                           fsr2l	equ	0xFD9
  3264                           status	equ	0xFD8

Data Sizes:
    Strings     0
    Constant    16
    Data        50
    BSS         15
    Persistent  0
    Stack       0

Auto Spaces:
    Space          Size  Autos    Used
    COMRAM          127     31      96
    BANK0           128      0       0
    BANK1           256      0       0
    BANK2           256      0       0
    BANK3           256      0       0
    BANK4           256      0       0
    BANK5           256      0       0
    BANK6           256      0       0
    BANK7           256      0       0
    BANK8           256      0       0
    BANK9           256      0       0
    BANK10          256      0       0
    BANK11          256      0       0
    BANK12          256      0       0
    BANK13          256      0       0
    BANK14          256      0       0
    BANK15          128      0       0

Pointer List with Targets:

    gpio_pin_initialize@pin	PTR const struct . size(1) Largest target is 8
		 -> dc_motor_init@pin1(COMRAM[1]), dc_motor_init@pin2(COMRAM[1]), keypad1(COMRAM[8]), keypad1$keypad_rows_pins(COMRAM[4]), 
		 -> lcd1(COMRAM[6]), lcd1$lcd_data(COMRAM[4]), lcd1$lcd_en(COMRAM[1]), lcd1$lcd_rs(COMRAM[1]), 
		 -> led_init@pin(COMRAM[1]), relay_init@pin(COMRAM[1]), seg1(COMRAM[5]), seg1$seg_pins(COMRAM[4]), 

    gpio_pin_read@logic	PTR enum E2993 size(1) Largest target is 1
		 -> button_read_state@logic(COMRAM[1]), keypad_get_value@column_logic(COMRAM[1]), 

    gpio_pin_read@pin	PTR const struct . size(1) Largest target is 8
		 -> keypad1(COMRAM[8]), keypad1$keypad_columns_pins(COMRAM[4]), 

    gpio_pin_set_direction@pin	PTR const struct . size(1) Largest target is 8
		 -> dc_motor_init@pin1(COMRAM[1]), dc_motor_init@pin2(COMRAM[1]), keypad1(COMRAM[8]), keypad1$keypad_columns_pins(COMRAM[4]), 
		 -> keypad1$keypad_rows_pins(COMRAM[4]), lcd1(COMRAM[6]), lcd1$lcd_data(COMRAM[4]), lcd1$lcd_en(COMRAM[1]), 
		 -> lcd1$lcd_rs(COMRAM[1]), led_init@pin(COMRAM[1]), relay_init@pin(COMRAM[1]), seg1(COMRAM[5]), 
		 -> seg1$seg_pins(COMRAM[4]), 

    gpio_pin_write@pin	PTR const struct . size(1) Largest target is 8
		 -> dc_motor_init@pin1(COMRAM[1]), dc_motor_init@pin2(COMRAM[1]), dc_motor_move_dir1@pin1(COMRAM[1]), dc_motor_move_dir1@pin2(COMRAM[1]), 
		 -> dc_motor_move_dir2@pin1(COMRAM[1]), dc_motor_move_dir2@pin2(COMRAM[1]), dc_motor_stop@pin1(COMRAM[1]), dc_motor_stop@pin2(COMRAM[1]), 
		 -> keypad1(COMRAM[8]), keypad1$keypad_rows_pins(COMRAM[4]), lcd1(COMRAM[6]), lcd1$lcd_data(COMRAM[4]), 
		 -> lcd1$lcd_en(COMRAM[1]), lcd1$lcd_rs(COMRAM[1]), led_init@pin(COMRAM[1]), led_turn_off@pin(COMRAM[1]), 
		 -> led_turn_on@pin(COMRAM[1]), relay_init@pin(COMRAM[1]), relay_turn_off@pin(COMRAM[1]), relay_turn_on@pin(COMRAM[1]), 
		 -> seg1(COMRAM[5]), seg1$seg_pins(COMRAM[4]), 

    keypad_get_value@keypad	PTR const struct . size(1) Largest target is 8
		 -> keypad1(COMRAM[8]), 

    keypad_get_value@value	PTR unsigned char  size(1) Largest target is 1
		 -> main@val(COMRAM[1]), 

    keypad_init@keypad	PTR struct . size(1) Largest target is 8
		 -> keypad1(COMRAM[8]), 

    lat_registers	PTR volatile unsigned char [5] size(2) Largest target is 1
		 -> LATA(BITBIGSFRll[1]), LATB(BITBIGSFRlh[1]), LATC(BITBIGSFRlh[1]), LATD(BITBIGSFRlh[1]), 
		 -> LATE(BITBIGSFRlh[1]), 

    lcd_4bit_init@lcd	PTR struct . size(1) Largest target is 6
		 -> lcd1(COMRAM[6]), 

    lcd_4bit_send_char@lcd	PTR const struct . size(1) Largest target is 6
		 -> lcd1(COMRAM[6]), 

    lcd_4bit_send_char_pos@lcd	PTR const struct . size(1) Largest target is 6
		 -> lcd1(COMRAM[6]), 

    lcd_4bit_send_cmd@lcd	PTR const struct . size(1) Largest target is 6
		 -> lcd1(COMRAM[6]), 

    lcd_4bit_set_cursor@lcd	PTR const struct . size(1) Largest target is 6
		 -> lcd1(COMRAM[6]), 

    lcd_4bits_send_enable_signal@lcd	PTR const struct . size(1) Largest target is 6
		 -> lcd1(COMRAM[6]), 

    lcd_send_4bits@lcd	PTR const struct . size(1) Largest target is 6
		 -> lcd1(COMRAM[6]), 

    led_init@led	PTR const struct . size(1) Largest target is 1
		 -> led1(COMRAM[1]), 

    led_turn_off@led	PTR const struct . size(1) Largest target is 1
		 -> led1(COMRAM[1]), 

    led_turn_on@led	PTR const struct . size(1) Largest target is 1
		 -> led1(COMRAM[1]), 

    port_registers	PTR volatile unsigned char [5] size(2) Largest target is 1
		 -> PORTA(BITBIGSFRll[1]), PORTB(BITBIGSFRll[1]), PORTC(BITBIGSFRll[1]), PORTD(BITBIGSFRll[1]), 
		 -> PORTE(BITBIGSFRll[1]), 

    seven_seg_init@seg	PTR const struct . size(1) Largest target is 5
		 -> seg1(COMRAM[5]), 

    seven_seg_write_number@seg	PTR const struct . size(1) Largest target is 5
		 -> seg1(COMRAM[5]), 

    tris_registers	PTR volatile unsigned char [5] size(2) Largest target is 1
		 -> TRISA(BITBIGSFRll[1]), TRISB(BITBIGSFRh[1]), TRISC(BITBIGSFRh[1]), TRISD(BITBIGSFRh[1]), 
		 -> TRISE(BITBIGSFRh[1]), 


Critical Paths under _main in COMRAM

    _main->_lcd_4bit_send_char_pos
    _seven_seg_write_number->_gpio_pin_write
    _seven_seg_init->_gpio_pin_initialize
    _led_turn_on->_gpio_pin_write
    _led_turn_off->_gpio_pin_write
    _led_init->_gpio_pin_initialize
    _lcd_4bit_send_char_pos->_lcd_4bit_set_cursor
    _lcd_4bit_set_cursor->_lcd_4bit_send_cmd
    _lcd_4bit_send_char->_lcd_send_4bits
    _lcd_4bit_init->_lcd_4bit_send_cmd
    _lcd_4bit_send_cmd->_lcd_send_4bits
    _lcd_send_4bits->_gpio_pin_write
    _lcd_4bits_send_enable_signal->_gpio_pin_write
    _keypad_init->_gpio_pin_initialize
    _gpio_pin_initialize->_gpio_pin_write
    _keypad_get_value->_gpio_pin_read

Critical Paths under _main in BANK0

    None.

Critical Paths under _main in BANK1

    None.

Critical Paths under _main in BANK2

    None.

Critical Paths under _main in BANK3

    None.

Critical Paths under _main in BANK4

    None.

Critical Paths under _main in BANK5

    None.

Critical Paths under _main in BANK6

    None.

Critical Paths under _main in BANK7

    None.

Critical Paths under _main in BANK8

    None.

Critical Paths under _main in BANK9

    None.

Critical Paths under _main in BANK10

    None.

Critical Paths under _main in BANK11

    None.

Critical Paths under _main in BANK12

    None.

Critical Paths under _main in BANK13

    None.

Critical Paths under _main in BANK14

    None.

Critical Paths under _main in BANK15

    None.

Call Graph Tables:

 ---------------------------------------------------------------------------------
 (Depth) Function   	        Calls       Base Space   Used Autos Params    Refs
 ---------------------------------------------------------------------------------
 (0) _main                                                 6     6      0   97282
                                             26 COMRAM     5     5      0
                   _keypad_get_value
                        _keypad_init
                      _lcd_4bit_init
                 _lcd_4bit_send_char
             _lcd_4bit_send_char_pos
                           _led_init
                       _led_turn_off
                        _led_turn_on
                     _seven_seg_init
             _seven_seg_write_number
 ---------------------------------------------------------------------------------
 (1) _seven_seg_write_number                               3     1      2    4103
                                              8 COMRAM     3     1      2
                     _gpio_pin_write
 ---------------------------------------------------------------------------------
 (1) _seven_seg_init                                       2     1      1    5372
                                             11 COMRAM     2     1      1
                _gpio_pin_initialize
 ---------------------------------------------------------------------------------
 (1) _led_turn_on                                          4     3      1    4000
                                              8 COMRAM     3     2      1
                     _gpio_pin_write
 ---------------------------------------------------------------------------------
 (1) _led_turn_off                                         4     3      1    4000
                                              8 COMRAM     3     2      1
                     _gpio_pin_write
 ---------------------------------------------------------------------------------
 (1) _led_init                                             4     3      1    5411
                                             11 COMRAM     3     2      1
                _gpio_pin_initialize
 ---------------------------------------------------------------------------------
 (1) _lcd_4bit_send_char_pos                               5     1      4   29304
                                             21 COMRAM     5     1      4
                 _lcd_4bit_send_char
                _lcd_4bit_set_cursor
 ---------------------------------------------------------------------------------
 (2) _lcd_4bit_set_cursor                                  4     1      3   15382
                                             17 COMRAM     4     1      3
                  _lcd_4bit_send_cmd
 ---------------------------------------------------------------------------------
 (2) _lcd_4bit_send_char                                   3     1      2   13156
                                             14 COMRAM     3     1      2
                     _gpio_pin_write
       _lcd_4bits_send_enable_signal
                     _lcd_send_4bits
 ---------------------------------------------------------------------------------
 (1) _lcd_4bit_init                                        4     3      1   20477
                                             17 COMRAM     4     3      1
                _gpio_pin_initialize
                  _lcd_4bit_send_cmd
 ---------------------------------------------------------------------------------
 (3) _lcd_4bit_send_cmd                                    3     1      2   14676
                                             14 COMRAM     3     1      2
                     _gpio_pin_write
       _lcd_4bits_send_enable_signal
                     _lcd_send_4bits
 ---------------------------------------------------------------------------------
 (4) _lcd_send_4bits                                       6     4      2    4509
                                              8 COMRAM     6     4      2
                     _gpio_pin_write
 ---------------------------------------------------------------------------------
 (4) _lcd_4bits_send_enable_signal                         2     1      1    4115
                                              8 COMRAM     2     1      1
                     _gpio_pin_write
 ---------------------------------------------------------------------------------
 (1) _keypad_init                                          4     3      1    6003
                                             11 COMRAM     3     2      1
                _gpio_pin_initialize
             _gpio_pin_set_direction
 ---------------------------------------------------------------------------------
 (2) _gpio_pin_initialize                                  3     2      1    5174
                                              8 COMRAM     3     2      1
             _gpio_pin_set_direction
                     _gpio_pin_write
 ---------------------------------------------------------------------------------
 (3) _gpio_pin_set_direction                               7     6      1     407
                                              0 COMRAM     7     6      1
 ---------------------------------------------------------------------------------
 (1) _keypad_get_value                                     7     5      2    5358
                                             10 COMRAM     7     5      2
                      _gpio_pin_read
                     _gpio_pin_write
 ---------------------------------------------------------------------------------
 (2) _gpio_pin_write                                       8     6      2    3719
                                              0 COMRAM     8     6      2
 ---------------------------------------------------------------------------------
 (2) _gpio_pin_read                                       10     8      2     786
                                              0 COMRAM    10     8      2
 ---------------------------------------------------------------------------------
 Estimated maximum stack depth 4
 ---------------------------------------------------------------------------------

 Call Graph Graphs:

 _main (ROOT)
   _keypad_get_value
     _gpio_pin_read
     _gpio_pin_write
   _keypad_init
     _gpio_pin_initialize
       _gpio_pin_set_direction
       _gpio_pin_write
     _gpio_pin_set_direction
   _lcd_4bit_init
     _gpio_pin_initialize
     _lcd_4bit_send_cmd
       _gpio_pin_write
       _lcd_4bits_send_enable_signal
         _gpio_pin_write
       _lcd_send_4bits
         _gpio_pin_write
   _lcd_4bit_send_char
     _gpio_pin_write
     _lcd_4bits_send_enable_signal
     _lcd_send_4bits
   _lcd_4bit_send_char_pos
     _lcd_4bit_send_char
     _lcd_4bit_set_cursor
       _lcd_4bit_send_cmd
   _led_init
     _gpio_pin_initialize
   _led_turn_off
     _gpio_pin_write
   _led_turn_on
     _gpio_pin_write
   _seven_seg_init
     _gpio_pin_initialize
   _seven_seg_write_number
     _gpio_pin_write

 Address spaces:
Name               Size   Autos  Total    Cost      Usage
BIGRAM             F7F      0       0      40        0.0%
EEDATA             400      0       0       0        0.0%
BITBANK14          100      0       0      32        0.0%
BANK14             100      0       0      33        0.0%
BITBANK13          100      0       0      30        0.0%
BANK13             100      0       0      31        0.0%
BITBANK12          100      0       0      28        0.0%
BANK12             100      0       0      29        0.0%
BITBANK11          100      0       0      26        0.0%
BANK11             100      0       0      27        0.0%
BITBANK10          100      0       0      24        0.0%
BANK10             100      0       0      25        0.0%
BITBANK9           100      0       0      22        0.0%
BANK9              100      0       0      23        0.0%
BITBANK8           100      0       0      20        0.0%
BANK8              100      0       0      21        0.0%
BITBANK7           100      0       0      18        0.0%
BANK7              100      0       0      19        0.0%
BITBANK6           100      0       0      16        0.0%
BANK6              100      0       0      17        0.0%
BITBANK5           100      0       0      14        0.0%
BANK5              100      0       0      15        0.0%
BITBANK4           100      0       0      12        0.0%
BANK4              100      0       0      13        0.0%
BITBANK3           100      0       0      10        0.0%
BANK3              100      0       0      11        0.0%
BITBANK2           100      0       0       8        0.0%
BANK2              100      0       0       9        0.0%
BITBANK1           100      0       0       6        0.0%
BANK1              100      0       0       7        0.0%
BITBANK15           80      0       0      34        0.0%
BANK15              80      0       0      35        0.0%
BITBANK0            80      0       0       4        0.0%
BANK0               80      0       0       5        0.0%
BITCOMRAM           7F      0       0       0        0.0%
COMRAM              7F     1F      60       1       75.6%
BITBIGSFRh          69      0       0      36        0.0%
BITBIGSFRlh          4      0       0      37        0.0%
BITBIGSFRll          4      0       0      38        0.0%
BIGSFR               0      0       0     200        0.0%
BITSFR               0      0       0     200        0.0%
SFR                  0      0       0     200        0.0%
STACK                0      0       0       2        0.0%
NULL                 0      0       0       0        0.0%
ABS                  0      0      60      39        0.0%
DATA                 0      0      60       3        0.0%
CODE                 0      0       0       0        0.0%


Microchip Technology PIC18 Macro Assembler V2.46 build 20240104201356 
Symbol Table                                                                                   Sat Aug 24 19:22:58 2024

                                   l9 1B94                       ?_lcd_send_4bits 003B  
                                  l16 1902                                    l61 13F8  
                                  l71 1AF6                                    l66 1B52  
                                  l76 1BD0                      ??_seven_seg_init 003F  
                                 l112 1C0C                                   l203 12C4  
                                 l107 1A3C                                   l124 180C  
                                 l212 16EE                                   l310 150A  
                                 l230 19DA                                   l223 1974  
                                 l216 1778                                   l226 198A  
                                 l219 1918                                   l350 1A9A  
                                 l336 16D8                                   l329 1172  
                                 l185 188E                                   u900 1046  
                                 u901 1042  __end_of_lcd_4bits_send_enable_signal 1C0E  
        _lcd_4bits_send_enable_signal 1BD2                                   u914 106C  
                                 u915 1068                                   u924 10C2  
                                 u940 19F0                                   u925 10BE  
                                 u941 19EC                                   u934 1114  
                                 u935 1110                                   u960 1A3A  
                                 u961 1A36                                   u890 1026  
                                 u970 1BE2                                   u954 1A16  
                                 u891 1022                                   u971 1BDE  
                                 u955 1A12                                   u980 140E  
                                 u981 140A                                   u990 142E  
                                 u991 142A                      lcd_4bit_init@lcd 0044  
                    lcd_4bit_init@ret 0046                                   wreg 0FE8  
                        ?_led_turn_on 003B                    gpio_pin_read@logic 0034  
                                l2010 182A                                  l2100 12B2  
                                l2020 184C                                  l2102 12C2  
                                l2030 1862                                  l2022 184E  
                                l2006 180E                                  l2110 16F2  
                                l2040 1180                                  l2032 1870  
                                l2024 185E                                  l2016 182E  
                                l2008 1826                                  l2112 1728  
                                l2120 1904                                  l2042 118A  
                                l2034 187C                                  l2018 1842  
                                l2114 172A                                  l2106 16DA  
                                l2130 1976                                  l2122 1914  
                                l2060 11D6                                  l2044 119A  
                                l2036 187E                                  l2116 1770  
                                l2108 16EA                                  l2132 1986  
                                l2124 191C                                  l2054 11B6  
                                l2046 11AA                                  l2038 1174  
                                l2134 198E                                  l2126 1952  
                                l2080 121C                                  l2056 11C4  
                                l2048 11B2                                  l2136 19C4  
                                l2090 1276                                  l2082 1230  
                                l2074 11EC                                  l2066 11DA  
                                l2058 11C6                                  l2330 1558  
                                l2092 1286                                  l2084 1240  
                                l2076 11FC                                  l2068 11E8  
                                l2340 1580                                  l2332 155A  
                                l2094 1296                                  l2086 1250  
                                l2078 120C                                  l2342 1596  
                                l2334 155A                                  l2088 1274  
                                l2352 15BA                                  l2344 15A2  
                                l2336 1562                                  l2328 150C  
                                l2098 12B0                                  l1802 19FC  
                                l2354 15C2                                  l2346 15B2  
                                l2338 1578                                  l2364 115A  
                                l1820 1C0A                                  l1812 1BD2  
                                l1804 1A28                                  l1900 17A8  
                                l2356 15D0                                  l1830 1436  
                                l1814 1BE2                                  l1806 1A2A  
                                l1902 17BC                                  l1910 17E4  
                                l2358 15E6                                  l1832 1486  
                                l1840 1508                                  l1824 13FA  
                                l1816 1BEA                                  l1808 1A3A  
                                l1904 17D0                                  l1912 180A  
                                l1920 1B68                                  l1770 1026  
                                l1826 140E                                  l1818 1BF6  
                                l1850 1B50                                  l1930 18B4  
                                l1772 1046                                  l1828 142E  
                                l1860 1A76                                  l1844 1AF8  
                                l1940 12EE                                  l1916 1B54  
                                l1924 1890                                  l1870 1632  
                                l1774 104E                                  l1782 1146  
                                l1838 14DC                                  l1862 1A98  
                                l1854 1A3E                                  l1846 1B08  
                                l1942 12FA                                  l1934 12C6  
                                l1918 1B64                                  l1926 18A0  
                                l1872 1652                                  l1776 10A4  
                                l1784 1170                                  l1768 1012  
                                l1856 1A4E                                  l1792 19DC  
                                l1848 1B10                                  l1960 1344  
                                l1944 1306                                  l1936 12DA  
                                l1880 1A9C                                  l1928 18B0  
                                l1874 165A                                  l1866 160E  
                                l1858 1A6E                                  l1794 19F0  
                                l1970 1392                                  l1962 1354  
                                l1954 131A                                  l1946 130E  
                                l1938 12DE                                  l1882 1AAC  
                                l1890 177A                                  l1876 16D6  
                                l1868 1622                                  l1796 19F8  
                                l1972 139E                                  l1964 1364  
                                l1956 1336                                  l1948 1316  
                                l1884 1AB4                                  l1892 177A  
                                l1980 1BA6                                  l1974 13AA  
                                l1966 1370                                  l1958 1342  
                                l1886 1AF4                                  l1894 177C  
                                l1982 1BAE                                  l1968 138C  
                                l1896 178C                                  l1984 1BCE  
                                l1898 1794                                  l1978 1B96  
                                u1020 14F2                                  u1004 1454  
                                u1021 14EC                                  u1005 1450  
                                u1014 14A4                                  u1030 1B08  
                                u1110 1AAC                                  u1015 14A0  
                                u1031 1B04                                  u1111 1AA8  
                                u1104 16CC                                  u1040 1A4E  
                                u1120 178C                                  u1105 16C8  
                                u1041 1A4A                                  u1121 1788  
                                u1026 14F4                                  u1050 1A6E  
                                u1130 1B64                                  u1051 1A6A  
                                u1131 1B60                                  u1060 1622  
                                u1300 1286                                  u1220 1826  
                                u1140 18A0                                  u1061 161E  
                                u1301 1282                                  u1221 1822  
                                u1141 189C                                  u1070 1632  
                                u1310 12AC                                  u1230 185E  
                                u1150 18B0                                  u1071 162E  
                                u1311 12A8                                  u1231 185A  
                                u1151 18AC                                  u1080 1652  
                                u1320 12C2                                  u1240 188E  
                                u1160 12DA                                  u1400 1986  
                                u1081 164E                                  u1321 12BE  
                                u1241 188A                                  u1161 12D6  
                                u1401 1982                                  u1250 119A  
                                u1170 1354                                  u1330 16EA  
                                u1251 1196                                  u1171 1350  
                                u1331 16E6                                  u1260 11AA  
                                u1180 1BA6                                  u1340 1740  
                                u1261 11A6                                  u1181 1BA2  
                                u1341 173A                                  _LATA 0F89  
                                u1094 16B6                                  u1270 11D6  
                                u1350 175A                                  u1342 1742  
                                _LATB 0F8A                                  u1095 16B2  
                                u1271 11D2                                  u1351 1754  
                                _LATC 0F8B                                  u1280 120C  
                                u1360 176E                                  u1352 175C  
                                u1600 15B2                                  _LATD 0F8C  
                                u1281 1208                                  u1361 1768  
                                u1601 15AE                                  _LATE 0F8D  
                                u1290 1250                                  u1610 1606  
                                u1291 124C                                  u1611 1602  
                                u1380 1914                                  u1381 1910  
                                u1390 196C                                  u1375 1770  
                                u1391 1966                                  u1707 1212  
                                u1627 156C                                  u1396 196E  
                                u1637 158A                                  u1647 15C8  
                                u1657 15DE                                  u1667 135A  
                                u1677 1376                                  u1687 138E  
                                u1697 13AC               ?_seven_seg_write_number 003B  
                                _lcd1 0027                                  _led1 0032  
                                _seg1 002D                                  _main 150C  
                                fsr1h 0FE2                                  fsr2h 0FDA  
                                indf1 0FE7                                  indf2 0FDF  
                                fsr1l 0FE1                                  fsr2l 0FD9  
        keypad_get_value@rows_counter 0043                                  prodl 0FF3  
                                start 0000                           led_init@led 003E  
                         led_init@pin 0040                         ?_led_turn_off 003B  
                        ___param_bank 0000                keypad_get_value@keypad 003D  
                               ?_main 0033                     gpio_pin_write@pin 0033  
                   gpio_pin_write@ret 003A                   relay_turn_off@F3077 0052  
                               _PORTA 0F80                                 _PORTB 0F81  
                               _PORTC 0F82                                 _PORTD 0F83  
                               _PORTE 0F84                                 _TRISA 0F92  
                               _TRISB 0F93                                 _TRISC 0F94  
                               _TRISD 0F95                                 _TRISE 0F96  
           lcd_4bit_set_cursor@column 0046         ?_lcd_4bits_send_enable_signal 003B  
            __end_of_keypad_get_value 12C6                          ?_keypad_init 003E  
                               main@i 004F        __end_of_seven_seg_write_number 1904  
                               tablat 0FF5                                 status 0FD8  
        lcd_4bit_send_char_pos@column 004B                        ??_led_turn_off 003C  
              _lcd_4bit_send_char_pos 1B96                       __initialization 1C0E  
                 keypad_get_value@ret 0040                          __end_of_main 160E  
                       _lat_registers 000B                                ??_main 004D  
                       __activetblptr 0002                      led_turn_on@F3083 0057  
             keypad_init@rows_counter 0040                      __end_of_led_init 177A  
               __end_of_lcd_4bit_init 13FA                         _gpio_pin_read 160E  
                              clear_0 1C34                                isa$std 0001  
                       led_init@F3078 0058                          __pdataCOMRAM 0001  
                        __mediumconst 0000                                tblptrh 0FF7  
                              tblptrl 0FF6                                tblptru 0FF8  
                          __accesstop 0080               __end_of__initialization 1C3A  
                       ___rparam_used 0001                      ??_lcd_send_4bits 003D  
                      __pcstackCOMRAM 0033                 lcd_4bit_send_char@lcd 0041  
               lcd_4bit_send_char@ret 0043                        ?_gpio_pin_read 0033  
           lcd_4bit_init@pins_counter 0047                  __end_of_led_turn_off 19DC  
     lcd_4bits_send_enable_signal@lcd 003B       lcd_4bits_send_enable_signal@ret 003C  
                  dc_motor_init@F3071 0060                    dc_motor_init@F3073 005F  
                   led_turn_off@F3088 0056               lcd_send_4bits@_data_cmd 003C  
                 gpio_pin_write@logic 0034                       led_toggle@F3093 0055  
                       _keypad_values 1001                     ?_keypad_get_value 003D  
                           ?_led_init 003E                    ??_keypad_get_value 003F  
                      _tris_registers 0015              ??_gpio_pin_set_direction 0034  
             ?_lcd_4bit_send_char_pos 0048                               __Hparam 0000  
                             __Lparam 0000                       ??_gpio_pin_read 0035  
                 _gpio_pin_initialize 1A3E          seven_seg_write_number@number 003C  
                        __psmallconst 1000                               __pcinit 1C0E  
                             __ramtop 1000                               __ptext0 150C  
                             __ptext1 1890                               __ptext2 1B54  
                             __ptext3 1904                               __ptext4 1976  
                             __ptext5 16DA                               __ptext6 1B96  
                             __ptext7 177A                               __ptext8 1A9C  
                             __ptext9 12C6                        _gpio_pin_write 1012  
                             _keypad1 001F                  ?_gpio_pin_initialize 003B  
                             main@val 0051                            ??_led_init 003F  
                end_of_initialization 1C3A                     lcd_send_4bits@lcd 003B  
                   lcd_send_4bits@ret 003F        __end_of_lcd_4bit_send_char_pos 1BD2  
                       __Lmediumconst 0000                    dc_motor_stop@F3092 005A  
                  dc_motor_stop@F3094 0059            __end_of_lcd_4bit_send_char 1AF8  
                             postdec1 0FE5                               postdec2 0FDD  
                             postinc0 0FEE                               postinc1 0FE6  
                             postinc2 0FDE                __end_of_gpio_pin_write 1174  
             dc_motor_move_dir1@F3080 005D               dc_motor_move_dir1@F3078 005E  
        keypad_get_value@column_logic 0041               dc_motor_move_dir2@F3085 005C  
             dc_motor_move_dir2@F3087 005B                 ??_gpio_pin_initialize 003C  
                    gpio_pin_read@pin 0033                      gpio_pin_read@ret 003C  
                   seven_seg_init@seg 003E                     seven_seg_init@ret 003F  
          lcd_4bit_send_char_pos@data 0049                          _led_turn_off 1976  
                 _lcd_4bit_set_cursor 177A                    relay_turn_on@F3072 0053  
              lcd_4bit_send_char@data 0042                 keypad_get_value@value 003E  
                       __pidataCOMRAM 1C44                       ?_gpio_pin_write 0033  
           seven_seg_write_number@seg 003B             seven_seg_write_number@ret 003D  
            ??_seven_seg_write_number 003D                   start_initialization 1C0E  
                       ??_led_turn_on 003C                  ?_lcd_4bit_set_cursor 0044  
                     led_turn_off@led 003B                       led_turn_off@pin 003D  
              _gpio_pin_set_direction 13FA                           __pbssCOMRAM 0052  
               ??_lcd_4bit_set_cursor 0047                  lcd_4bit_send_cmd@cmd 0042  
                lcd_4bit_send_cmd@lcd 0041                  lcd_4bit_send_cmd@ret 0043  
                       ??_keypad_init 003F                        _seven_seg_init 1B54  
                 __end_of_led_turn_on 1976        ??_lcd_4bits_send_enable_signal 003C  
                       _lcd_4bit_init 12C6            keypad_init@columns_counter 003F  
                         __smallconst 1000                __end_of_seven_seg_init 1B96  
                 __end_of_keypad_init 1890                 __end_of_gpio_pin_read 16DA  
                      ?_lcd_4bit_init 0044                    _lcd_4bit_send_char 1A9C  
           gpio_pin_set_direction@pin 0033             gpio_pin_set_direction@ret 0039  
              gpio_pin_initialize@pin 003B                gpio_pin_initialize@ret 003D  
                     ?_seven_seg_init 003E                           _led_turn_on 1904  
                     relay_init@F3067 0054       keypad_get_value@columns_counter 0042  
                 ?_lcd_4bit_send_char 0041                             copy_data0 1C22  
              _seven_seg_write_number 1890                        led_turn_on@led 003B  
                      led_turn_on@pin 003D                              __Hrparam 0000  
                            __Lrparam 0000                      ??_gpio_pin_write 0035  
                ??_lcd_4bit_send_char 0043                lcd_4bit_set_cursor@lcd 0044  
              lcd_4bit_set_cursor@ret 0047                lcd_4bit_set_cursor@row 0045  
         __end_of_gpio_pin_initialize 1A9C                              __ptext10 1AF8  
                            __ptext11 19DC                              __ptext12 1BD2  
                            __ptext13 180E                              __ptext14 1A3E  
                            __ptext15 13FA                              __ptext16 1174  
                            __ptext17 1012                              __ptext18 160E  
                   keypad_init@keypad 003E                           _keypad_init 180E  
                            _led_init 16DA                      _keypad_get_value 1174  
                     ??_lcd_4bit_init 0045                              isa$xinst 0000  
             ?_gpio_pin_set_direction 0033                     _lcd_4bit_send_cmd 1AF8  
                      _lcd_send_4bits 19DC                    ?_lcd_4bit_send_cmd 0041  
               __end_of_keypad_values 1011              ??_lcd_4bit_send_char_pos 004C  
                 ??_lcd_4bit_send_cmd 0043        __end_of_gpio_pin_set_direction 150C  
           __end_of_lcd_4bit_send_cmd 1B54                __end_of_lcd_send_4bits 1A3E  
         __end_of_lcd_4bit_set_cursor 180E                        _port_registers 0001  
         lcd_send_4bits@l_pin_counter 0040             lcd_4bit_send_char_pos@lcd 0048  
           lcd_4bit_send_char_pos@ret 004C             lcd_4bit_send_char_pos@row 004A  
